
ctarget:     file format elf64-x86-64


Disassembly of section .init:

0000000000400c48 <_init>:
  400c48:	48 83 ec 08          	sub    $0x8,%rsp
  400c4c:	48 8b 05 a5 33 20 00 	mov    0x2033a5(%rip),%rax        # 603ff8 <__gmon_start__>
  400c53:	48 85 c0             	test   %rax,%rax
  400c56:	74 02                	je     400c5a <_init+0x12>
  400c58:	ff d0                	callq  *%rax
  400c5a:	48 83 c4 08          	add    $0x8,%rsp
  400c5e:	c3                   	retq   

Disassembly of section .plt:

0000000000400c60 <.plt>:
  400c60:	ff 35 a2 33 20 00    	pushq  0x2033a2(%rip)        # 604008 <_GLOBAL_OFFSET_TABLE_+0x8>
  400c66:	ff 25 a4 33 20 00    	jmpq   *0x2033a4(%rip)        # 604010 <_GLOBAL_OFFSET_TABLE_+0x10>
  400c6c:	0f 1f 40 00          	nopl   0x0(%rax)

0000000000400c70 <strcasecmp@plt>:
  400c70:	ff 25 a2 33 20 00    	jmpq   *0x2033a2(%rip)        # 604018 <strcasecmp@GLIBC_2.2.5>
  400c76:	68 00 00 00 00       	pushq  $0x0
  400c7b:	e9 e0 ff ff ff       	jmpq   400c60 <.plt>

0000000000400c80 <__errno_location@plt>:
  400c80:	ff 25 9a 33 20 00    	jmpq   *0x20339a(%rip)        # 604020 <__errno_location@GLIBC_2.2.5>
  400c86:	68 01 00 00 00       	pushq  $0x1
  400c8b:	e9 d0 ff ff ff       	jmpq   400c60 <.plt>

0000000000400c90 <srandom@plt>:
  400c90:	ff 25 92 33 20 00    	jmpq   *0x203392(%rip)        # 604028 <srandom@GLIBC_2.2.5>
  400c96:	68 02 00 00 00       	pushq  $0x2
  400c9b:	e9 c0 ff ff ff       	jmpq   400c60 <.plt>

0000000000400ca0 <strncmp@plt>:
  400ca0:	ff 25 8a 33 20 00    	jmpq   *0x20338a(%rip)        # 604030 <strncmp@GLIBC_2.2.5>
  400ca6:	68 03 00 00 00       	pushq  $0x3
  400cab:	e9 b0 ff ff ff       	jmpq   400c60 <.plt>

0000000000400cb0 <strcpy@plt>:
  400cb0:	ff 25 82 33 20 00    	jmpq   *0x203382(%rip)        # 604038 <strcpy@GLIBC_2.2.5>
  400cb6:	68 04 00 00 00       	pushq  $0x4
  400cbb:	e9 a0 ff ff ff       	jmpq   400c60 <.plt>

0000000000400cc0 <puts@plt>:
  400cc0:	ff 25 7a 33 20 00    	jmpq   *0x20337a(%rip)        # 604040 <puts@GLIBC_2.2.5>
  400cc6:	68 05 00 00 00       	pushq  $0x5
  400ccb:	e9 90 ff ff ff       	jmpq   400c60 <.plt>

0000000000400cd0 <write@plt>:
  400cd0:	ff 25 72 33 20 00    	jmpq   *0x203372(%rip)        # 604048 <write@GLIBC_2.2.5>
  400cd6:	68 06 00 00 00       	pushq  $0x6
  400cdb:	e9 80 ff ff ff       	jmpq   400c60 <.plt>

0000000000400ce0 <__stack_chk_fail@plt>:
  400ce0:	ff 25 6a 33 20 00    	jmpq   *0x20336a(%rip)        # 604050 <__stack_chk_fail@GLIBC_2.4>
  400ce6:	68 07 00 00 00       	pushq  $0x7
  400ceb:	e9 70 ff ff ff       	jmpq   400c60 <.plt>

0000000000400cf0 <mmap@plt>:
  400cf0:	ff 25 62 33 20 00    	jmpq   *0x203362(%rip)        # 604058 <mmap@GLIBC_2.2.5>
  400cf6:	68 08 00 00 00       	pushq  $0x8
  400cfb:	e9 60 ff ff ff       	jmpq   400c60 <.plt>

0000000000400d00 <memset@plt>:
  400d00:	ff 25 5a 33 20 00    	jmpq   *0x20335a(%rip)        # 604060 <memset@GLIBC_2.2.5>
  400d06:	68 09 00 00 00       	pushq  $0x9
  400d0b:	e9 50 ff ff ff       	jmpq   400c60 <.plt>

0000000000400d10 <alarm@plt>:
  400d10:	ff 25 52 33 20 00    	jmpq   *0x203352(%rip)        # 604068 <alarm@GLIBC_2.2.5>
  400d16:	68 0a 00 00 00       	pushq  $0xa
  400d1b:	e9 40 ff ff ff       	jmpq   400c60 <.plt>

0000000000400d20 <close@plt>:
  400d20:	ff 25 4a 33 20 00    	jmpq   *0x20334a(%rip)        # 604070 <close@GLIBC_2.2.5>
  400d26:	68 0b 00 00 00       	pushq  $0xb
  400d2b:	e9 30 ff ff ff       	jmpq   400c60 <.plt>

0000000000400d30 <read@plt>:
  400d30:	ff 25 42 33 20 00    	jmpq   *0x203342(%rip)        # 604078 <read@GLIBC_2.2.5>
  400d36:	68 0c 00 00 00       	pushq  $0xc
  400d3b:	e9 20 ff ff ff       	jmpq   400c60 <.plt>

0000000000400d40 <signal@plt>:
  400d40:	ff 25 3a 33 20 00    	jmpq   *0x20333a(%rip)        # 604080 <signal@GLIBC_2.2.5>
  400d46:	68 0d 00 00 00       	pushq  $0xd
  400d4b:	e9 10 ff ff ff       	jmpq   400c60 <.plt>

0000000000400d50 <gethostbyname@plt>:
  400d50:	ff 25 32 33 20 00    	jmpq   *0x203332(%rip)        # 604088 <gethostbyname@GLIBC_2.2.5>
  400d56:	68 0e 00 00 00       	pushq  $0xe
  400d5b:	e9 00 ff ff ff       	jmpq   400c60 <.plt>

0000000000400d60 <__memmove_chk@plt>:
  400d60:	ff 25 2a 33 20 00    	jmpq   *0x20332a(%rip)        # 604090 <__memmove_chk@GLIBC_2.3.4>
  400d66:	68 0f 00 00 00       	pushq  $0xf
  400d6b:	e9 f0 fe ff ff       	jmpq   400c60 <.plt>

0000000000400d70 <strtol@plt>:
  400d70:	ff 25 22 33 20 00    	jmpq   *0x203322(%rip)        # 604098 <strtol@GLIBC_2.2.5>
  400d76:	68 10 00 00 00       	pushq  $0x10
  400d7b:	e9 e0 fe ff ff       	jmpq   400c60 <.plt>

0000000000400d80 <memcpy@plt>:
  400d80:	ff 25 1a 33 20 00    	jmpq   *0x20331a(%rip)        # 6040a0 <memcpy@GLIBC_2.14>
  400d86:	68 11 00 00 00       	pushq  $0x11
  400d8b:	e9 d0 fe ff ff       	jmpq   400c60 <.plt>

0000000000400d90 <time@plt>:
  400d90:	ff 25 12 33 20 00    	jmpq   *0x203312(%rip)        # 6040a8 <time@GLIBC_2.2.5>
  400d96:	68 12 00 00 00       	pushq  $0x12
  400d9b:	e9 c0 fe ff ff       	jmpq   400c60 <.plt>

0000000000400da0 <random@plt>:
  400da0:	ff 25 0a 33 20 00    	jmpq   *0x20330a(%rip)        # 6040b0 <random@GLIBC_2.2.5>
  400da6:	68 13 00 00 00       	pushq  $0x13
  400dab:	e9 b0 fe ff ff       	jmpq   400c60 <.plt>

0000000000400db0 <_IO_getc@plt>:
  400db0:	ff 25 02 33 20 00    	jmpq   *0x203302(%rip)        # 6040b8 <_IO_getc@GLIBC_2.2.5>
  400db6:	68 14 00 00 00       	pushq  $0x14
  400dbb:	e9 a0 fe ff ff       	jmpq   400c60 <.plt>

0000000000400dc0 <__isoc99_sscanf@plt>:
  400dc0:	ff 25 fa 32 20 00    	jmpq   *0x2032fa(%rip)        # 6040c0 <__isoc99_sscanf@GLIBC_2.7>
  400dc6:	68 15 00 00 00       	pushq  $0x15
  400dcb:	e9 90 fe ff ff       	jmpq   400c60 <.plt>

0000000000400dd0 <munmap@plt>:
  400dd0:	ff 25 f2 32 20 00    	jmpq   *0x2032f2(%rip)        # 6040c8 <munmap@GLIBC_2.2.5>
  400dd6:	68 16 00 00 00       	pushq  $0x16
  400ddb:	e9 80 fe ff ff       	jmpq   400c60 <.plt>

0000000000400de0 <__printf_chk@plt>:
  400de0:	ff 25 ea 32 20 00    	jmpq   *0x2032ea(%rip)        # 6040d0 <__printf_chk@GLIBC_2.3.4>
  400de6:	68 17 00 00 00       	pushq  $0x17
  400deb:	e9 70 fe ff ff       	jmpq   400c60 <.plt>

0000000000400df0 <fopen@plt>:
  400df0:	ff 25 e2 32 20 00    	jmpq   *0x2032e2(%rip)        # 6040d8 <fopen@GLIBC_2.2.5>
  400df6:	68 18 00 00 00       	pushq  $0x18
  400dfb:	e9 60 fe ff ff       	jmpq   400c60 <.plt>

0000000000400e00 <getopt@plt>:
  400e00:	ff 25 da 32 20 00    	jmpq   *0x2032da(%rip)        # 6040e0 <getopt@GLIBC_2.2.5>
  400e06:	68 19 00 00 00       	pushq  $0x19
  400e0b:	e9 50 fe ff ff       	jmpq   400c60 <.plt>

0000000000400e10 <strtoul@plt>:
  400e10:	ff 25 d2 32 20 00    	jmpq   *0x2032d2(%rip)        # 6040e8 <strtoul@GLIBC_2.2.5>
  400e16:	68 1a 00 00 00       	pushq  $0x1a
  400e1b:	e9 40 fe ff ff       	jmpq   400c60 <.plt>

0000000000400e20 <gethostname@plt>:
  400e20:	ff 25 ca 32 20 00    	jmpq   *0x2032ca(%rip)        # 6040f0 <gethostname@GLIBC_2.2.5>
  400e26:	68 1b 00 00 00       	pushq  $0x1b
  400e2b:	e9 30 fe ff ff       	jmpq   400c60 <.plt>

0000000000400e30 <exit@plt>:
  400e30:	ff 25 c2 32 20 00    	jmpq   *0x2032c2(%rip)        # 6040f8 <exit@GLIBC_2.2.5>
  400e36:	68 1c 00 00 00       	pushq  $0x1c
  400e3b:	e9 20 fe ff ff       	jmpq   400c60 <.plt>

0000000000400e40 <connect@plt>:
  400e40:	ff 25 ba 32 20 00    	jmpq   *0x2032ba(%rip)        # 604100 <connect@GLIBC_2.2.5>
  400e46:	68 1d 00 00 00       	pushq  $0x1d
  400e4b:	e9 10 fe ff ff       	jmpq   400c60 <.plt>

0000000000400e50 <__fprintf_chk@plt>:
  400e50:	ff 25 b2 32 20 00    	jmpq   *0x2032b2(%rip)        # 604108 <__fprintf_chk@GLIBC_2.3.4>
  400e56:	68 1e 00 00 00       	pushq  $0x1e
  400e5b:	e9 00 fe ff ff       	jmpq   400c60 <.plt>

0000000000400e60 <__sprintf_chk@plt>:
  400e60:	ff 25 aa 32 20 00    	jmpq   *0x2032aa(%rip)        # 604110 <__sprintf_chk@GLIBC_2.3.4>
  400e66:	68 1f 00 00 00       	pushq  $0x1f
  400e6b:	e9 f0 fd ff ff       	jmpq   400c60 <.plt>

0000000000400e70 <socket@plt>:
  400e70:	ff 25 a2 32 20 00    	jmpq   *0x2032a2(%rip)        # 604118 <socket@GLIBC_2.2.5>
  400e76:	68 20 00 00 00       	pushq  $0x20
  400e7b:	e9 e0 fd ff ff       	jmpq   400c60 <.plt>

Disassembly of section .text:

0000000000400e80 <_start>:
  400e80:	31 ed                	xor    %ebp,%ebp
  400e82:	49 89 d1             	mov    %rdx,%r9
  400e85:	5e                   	pop    %rsi
  400e86:	48 89 e2             	mov    %rsp,%rdx
  400e89:	48 83 e4 f0          	and    $0xfffffffffffffff0,%rsp
  400e8d:	50                   	push   %rax
  400e8e:	54                   	push   %rsp
  400e8f:	49 c7 c0 a0 2e 40 00 	mov    $0x402ea0,%r8
  400e96:	48 c7 c1 30 2e 40 00 	mov    $0x402e30,%rcx
  400e9d:	48 c7 c7 60 11 40 00 	mov    $0x401160,%rdi
  400ea4:	ff 15 46 31 20 00    	callq  *0x203146(%rip)        # 603ff0 <__libc_start_main@GLIBC_2.2.5>
  400eaa:	f4                   	hlt    
  400eab:	0f 1f 44 00 00       	nopl   0x0(%rax,%rax,1)

0000000000400eb0 <_dl_relocate_static_pie>:
  400eb0:	f3 c3                	repz retq 
  400eb2:	66 2e 0f 1f 84 00 00 	nopw   %cs:0x0(%rax,%rax,1)
  400eb9:	00 00 00 
  400ebc:	0f 1f 40 00          	nopl   0x0(%rax)

0000000000400ec0 <deregister_tm_clones>:
  400ec0:	55                   	push   %rbp
  400ec1:	b8 90 44 60 00       	mov    $0x604490,%eax
  400ec6:	48 3d 90 44 60 00    	cmp    $0x604490,%rax
  400ecc:	48 89 e5             	mov    %rsp,%rbp
  400ecf:	74 17                	je     400ee8 <deregister_tm_clones+0x28>
  400ed1:	b8 00 00 00 00       	mov    $0x0,%eax
  400ed6:	48 85 c0             	test   %rax,%rax
  400ed9:	74 0d                	je     400ee8 <deregister_tm_clones+0x28>
  400edb:	5d                   	pop    %rbp
  400edc:	bf 90 44 60 00       	mov    $0x604490,%edi
  400ee1:	ff e0                	jmpq   *%rax
  400ee3:	0f 1f 44 00 00       	nopl   0x0(%rax,%rax,1)
  400ee8:	5d                   	pop    %rbp
  400ee9:	c3                   	retq   
  400eea:	66 0f 1f 44 00 00    	nopw   0x0(%rax,%rax,1)

0000000000400ef0 <register_tm_clones>:
  400ef0:	be 90 44 60 00       	mov    $0x604490,%esi
  400ef5:	55                   	push   %rbp
  400ef6:	48 81 ee 90 44 60 00 	sub    $0x604490,%rsi
  400efd:	48 89 e5             	mov    %rsp,%rbp
  400f00:	48 c1 fe 03          	sar    $0x3,%rsi
  400f04:	48 89 f0             	mov    %rsi,%rax
  400f07:	48 c1 e8 3f          	shr    $0x3f,%rax
  400f0b:	48 01 c6             	add    %rax,%rsi
  400f0e:	48 d1 fe             	sar    %rsi
  400f11:	74 15                	je     400f28 <register_tm_clones+0x38>
  400f13:	b8 00 00 00 00       	mov    $0x0,%eax
  400f18:	48 85 c0             	test   %rax,%rax
  400f1b:	74 0b                	je     400f28 <register_tm_clones+0x38>
  400f1d:	5d                   	pop    %rbp
  400f1e:	bf 90 44 60 00       	mov    $0x604490,%edi
  400f23:	ff e0                	jmpq   *%rax
  400f25:	0f 1f 00             	nopl   (%rax)
  400f28:	5d                   	pop    %rbp
  400f29:	c3                   	retq   
  400f2a:	66 0f 1f 44 00 00    	nopw   0x0(%rax,%rax,1)

0000000000400f30 <__do_global_dtors_aux>:
  400f30:	80 3d 91 35 20 00 00 	cmpb   $0x0,0x203591(%rip)        # 6044c8 <completed.7697>
  400f37:	75 17                	jne    400f50 <__do_global_dtors_aux+0x20>
  400f39:	55                   	push   %rbp
  400f3a:	48 89 e5             	mov    %rsp,%rbp
  400f3d:	e8 7e ff ff ff       	callq  400ec0 <deregister_tm_clones>
  400f42:	c6 05 7f 35 20 00 01 	movb   $0x1,0x20357f(%rip)        # 6044c8 <completed.7697>
  400f49:	5d                   	pop    %rbp
  400f4a:	c3                   	retq   
  400f4b:	0f 1f 44 00 00       	nopl   0x0(%rax,%rax,1)
  400f50:	f3 c3                	repz retq 
  400f52:	0f 1f 40 00          	nopl   0x0(%rax)
  400f56:	66 2e 0f 1f 84 00 00 	nopw   %cs:0x0(%rax,%rax,1)
  400f5d:	00 00 00 

0000000000400f60 <frame_dummy>:
  400f60:	55                   	push   %rbp
  400f61:	48 89 e5             	mov    %rsp,%rbp
  400f64:	5d                   	pop    %rbp
  400f65:	eb 89                	jmp    400ef0 <register_tm_clones>

0000000000400f67 <usage>:
  400f67:	48 83 ec 08          	sub    $0x8,%rsp
  400f6b:	48 89 fa             	mov    %rdi,%rdx
  400f6e:	83 3d 93 35 20 00 00 	cmpl   $0x0,0x203593(%rip)        # 604508 <is_checker>
  400f75:	74 50                	je     400fc7 <usage+0x60>
  400f77:	48 8d 35 3a 1f 00 00 	lea    0x1f3a(%rip),%rsi        # 402eb8 <_IO_stdin_used+0x8>
  400f7e:	bf 01 00 00 00       	mov    $0x1,%edi
  400f83:	b8 00 00 00 00       	mov    $0x0,%eax
  400f88:	e8 53 fe ff ff       	callq  400de0 <__printf_chk@plt>
  400f8d:	48 8d 3d 5c 1f 00 00 	lea    0x1f5c(%rip),%rdi        # 402ef0 <_IO_stdin_used+0x40>
  400f94:	e8 27 fd ff ff       	callq  400cc0 <puts@plt>
  400f99:	48 8d 3d 88 20 00 00 	lea    0x2088(%rip),%rdi        # 403028 <_IO_stdin_used+0x178>
  400fa0:	e8 1b fd ff ff       	callq  400cc0 <puts@plt>
  400fa5:	48 8d 3d 6c 1f 00 00 	lea    0x1f6c(%rip),%rdi        # 402f18 <_IO_stdin_used+0x68>
  400fac:	e8 0f fd ff ff       	callq  400cc0 <puts@plt>
  400fb1:	48 8d 3d 8a 20 00 00 	lea    0x208a(%rip),%rdi        # 403042 <_IO_stdin_used+0x192>
  400fb8:	e8 03 fd ff ff       	callq  400cc0 <puts@plt>
  400fbd:	bf 00 00 00 00       	mov    $0x0,%edi
  400fc2:	e8 69 fe ff ff       	callq  400e30 <exit@plt>
  400fc7:	48 8d 35 90 20 00 00 	lea    0x2090(%rip),%rsi        # 40305e <_IO_stdin_used+0x1ae>
  400fce:	bf 01 00 00 00       	mov    $0x1,%edi
  400fd3:	b8 00 00 00 00       	mov    $0x0,%eax
  400fd8:	e8 03 fe ff ff       	callq  400de0 <__printf_chk@plt>
  400fdd:	48 8d 3d 5c 1f 00 00 	lea    0x1f5c(%rip),%rdi        # 402f40 <_IO_stdin_used+0x90>
  400fe4:	e8 d7 fc ff ff       	callq  400cc0 <puts@plt>
  400fe9:	48 8d 3d 78 1f 00 00 	lea    0x1f78(%rip),%rdi        # 402f68 <_IO_stdin_used+0xb8>
  400ff0:	e8 cb fc ff ff       	callq  400cc0 <puts@plt>
  400ff5:	48 8d 3d 80 20 00 00 	lea    0x2080(%rip),%rdi        # 40307c <_IO_stdin_used+0x1cc>
  400ffc:	e8 bf fc ff ff       	callq  400cc0 <puts@plt>
  401001:	eb ba                	jmp    400fbd <usage+0x56>

0000000000401003 <initialize_target>:
  401003:	55                   	push   %rbp
  401004:	53                   	push   %rbx
  401005:	48 81 ec 18 21 00 00 	sub    $0x2118,%rsp
  40100c:	89 f5                	mov    %esi,%ebp
  40100e:	64 48 8b 04 25 28 00 	mov    %fs:0x28,%rax
  401015:	00 00 
  401017:	48 89 84 24 08 21 00 	mov    %rax,0x2108(%rsp)
  40101e:	00 
  40101f:	31 c0                	xor    %eax,%eax
  401021:	89 3d d1 34 20 00    	mov    %edi,0x2034d1(%rip)        # 6044f8 <check_level>
  401027:	8b 3d 03 31 20 00    	mov    0x203103(%rip),%edi        # 604130 <target_id>
  40102d:	e8 d2 1d 00 00       	callq  402e04 <gencookie>
  401032:	89 05 cc 34 20 00    	mov    %eax,0x2034cc(%rip)        # 604504 <cookie>
  401038:	89 c7                	mov    %eax,%edi
  40103a:	e8 c5 1d 00 00       	callq  402e04 <gencookie>
  40103f:	89 05 bb 34 20 00    	mov    %eax,0x2034bb(%rip)        # 604500 <authkey>
  401045:	8b 05 e5 30 20 00    	mov    0x2030e5(%rip),%eax        # 604130 <target_id>
  40104b:	8d 78 01             	lea    0x1(%rax),%edi
  40104e:	e8 3d fc ff ff       	callq  400c90 <srandom@plt>
  401053:	e8 48 fd ff ff       	callq  400da0 <random@plt>
  401058:	89 c7                	mov    %eax,%edi
  40105a:	e8 ec 02 00 00       	callq  40134b <scramble>
  40105f:	89 c3                	mov    %eax,%ebx
  401061:	85 ed                	test   %ebp,%ebp
  401063:	75 54                	jne    4010b9 <initialize_target+0xb6>
  401065:	b8 00 00 00 00       	mov    $0x0,%eax
  40106a:	01 d8                	add    %ebx,%eax
  40106c:	0f b7 c0             	movzwl %ax,%eax
  40106f:	8d 04 c5 00 01 00 00 	lea    0x100(,%rax,8),%eax
  401076:	89 c0                	mov    %eax,%eax
  401078:	48 89 05 01 34 20 00 	mov    %rax,0x203401(%rip)        # 604480 <buf_offset>
  40107f:	c6 05 a2 40 20 00 63 	movb   $0x63,0x2040a2(%rip)        # 605128 <target_prefix>
  401086:	83 3d fb 33 20 00 00 	cmpl   $0x0,0x2033fb(%rip)        # 604488 <notify>
  40108d:	74 09                	je     401098 <initialize_target+0x95>
  40108f:	83 3d 72 34 20 00 00 	cmpl   $0x0,0x203472(%rip)        # 604508 <is_checker>
  401096:	74 39                	je     4010d1 <initialize_target+0xce>
  401098:	48 8b 84 24 08 21 00 	mov    0x2108(%rsp),%rax
  40109f:	00 
  4010a0:	64 48 33 04 25 28 00 	xor    %fs:0x28,%rax
  4010a7:	00 00 
  4010a9:	0f 85 ac 00 00 00    	jne    40115b <initialize_target+0x158>
  4010af:	48 81 c4 18 21 00 00 	add    $0x2118,%rsp
  4010b6:	5b                   	pop    %rbx
  4010b7:	5d                   	pop    %rbp
  4010b8:	c3                   	retq   
  4010b9:	bf 00 00 00 00       	mov    $0x0,%edi
  4010be:	e8 cd fc ff ff       	callq  400d90 <time@plt>
  4010c3:	89 c7                	mov    %eax,%edi
  4010c5:	e8 c6 fb ff ff       	callq  400c90 <srandom@plt>
  4010ca:	e8 d1 fc ff ff       	callq  400da0 <random@plt>
  4010cf:	eb 99                	jmp    40106a <initialize_target+0x67>
  4010d1:	48 89 e7             	mov    %rsp,%rdi
  4010d4:	be 00 01 00 00       	mov    $0x100,%esi
  4010d9:	e8 42 fd ff ff       	callq  400e20 <gethostname@plt>
  4010de:	89 c3                	mov    %eax,%ebx
  4010e0:	85 c0                	test   %eax,%eax
  4010e2:	75 24                	jne    401108 <initialize_target+0x105>
  4010e4:	48 63 c3             	movslq %ebx,%rax
  4010e7:	48 8d 15 72 30 20 00 	lea    0x203072(%rip),%rdx        # 604160 <host_table>
  4010ee:	48 8b 3c c2          	mov    (%rdx,%rax,8),%rdi
  4010f2:	48 85 ff             	test   %rdi,%rdi
  4010f5:	74 27                	je     40111e <initialize_target+0x11b>
  4010f7:	48 89 e6             	mov    %rsp,%rsi
  4010fa:	e8 71 fb ff ff       	callq  400c70 <strcasecmp@plt>
  4010ff:	85 c0                	test   %eax,%eax
  401101:	74 1b                	je     40111e <initialize_target+0x11b>
  401103:	83 c3 01             	add    $0x1,%ebx
  401106:	eb dc                	jmp    4010e4 <initialize_target+0xe1>
  401108:	48 8d 3d 89 1e 00 00 	lea    0x1e89(%rip),%rdi        # 402f98 <_IO_stdin_used+0xe8>
  40110f:	e8 ac fb ff ff       	callq  400cc0 <puts@plt>
  401114:	bf 08 00 00 00       	mov    $0x8,%edi
  401119:	e8 12 fd ff ff       	callq  400e30 <exit@plt>
  40111e:	48 8d bc 24 00 01 00 	lea    0x100(%rsp),%rdi
  401125:	00 
  401126:	e8 09 1a 00 00       	callq  402b34 <init_driver>
  40112b:	85 c0                	test   %eax,%eax
  40112d:	0f 89 65 ff ff ff    	jns    401098 <initialize_target+0x95>
  401133:	48 8d 94 24 00 01 00 	lea    0x100(%rsp),%rdx
  40113a:	00 
  40113b:	48 8d 35 8e 1e 00 00 	lea    0x1e8e(%rip),%rsi        # 402fd0 <_IO_stdin_used+0x120>
  401142:	bf 01 00 00 00       	mov    $0x1,%edi
  401147:	b8 00 00 00 00       	mov    $0x0,%eax
  40114c:	e8 8f fc ff ff       	callq  400de0 <__printf_chk@plt>
  401151:	bf 08 00 00 00       	mov    $0x8,%edi
  401156:	e8 d5 fc ff ff       	callq  400e30 <exit@plt>
  40115b:	e8 80 fb ff ff       	callq  400ce0 <__stack_chk_fail@plt>

0000000000401160 <main>:
  401160:	41 56                	push   %r14
  401162:	41 55                	push   %r13
  401164:	41 54                	push   %r12
  401166:	55                   	push   %rbp
  401167:	53                   	push   %rbx
  401168:	41 89 fc             	mov    %edi,%r12d
  40116b:	48 89 f3             	mov    %rsi,%rbx
  40116e:	48 c7 c6 3b 1e 40 00 	mov    $0x401e3b,%rsi
  401175:	bf 0b 00 00 00       	mov    $0xb,%edi
  40117a:	e8 c1 fb ff ff       	callq  400d40 <signal@plt>
  40117f:	48 c7 c6 e7 1d 40 00 	mov    $0x401de7,%rsi
  401186:	bf 07 00 00 00       	mov    $0x7,%edi
  40118b:	e8 b0 fb ff ff       	callq  400d40 <signal@plt>
  401190:	48 c7 c6 8f 1e 40 00 	mov    $0x401e8f,%rsi
  401197:	bf 04 00 00 00       	mov    $0x4,%edi
  40119c:	e8 9f fb ff ff       	callq  400d40 <signal@plt>
  4011a1:	83 3d 60 33 20 00 00 	cmpl   $0x0,0x203360(%rip)        # 604508 <is_checker>
  4011a8:	75 26                	jne    4011d0 <main+0x70>
  4011aa:	48 8d 2d e4 1e 00 00 	lea    0x1ee4(%rip),%rbp        # 403095 <_IO_stdin_used+0x1e5>
  4011b1:	48 8b 05 e8 32 20 00 	mov    0x2032e8(%rip),%rax        # 6044a0 <stdin@@GLIBC_2.2.5>
  4011b8:	48 89 05 31 33 20 00 	mov    %rax,0x203331(%rip)        # 6044f0 <infile>
  4011bf:	41 bd 00 00 00 00    	mov    $0x0,%r13d
  4011c5:	41 be 00 00 00 00    	mov    $0x0,%r14d
  4011cb:	e9 8d 00 00 00       	jmpq   40125d <main+0xfd>
  4011d0:	48 c7 c6 e3 1e 40 00 	mov    $0x401ee3,%rsi
  4011d7:	bf 0e 00 00 00       	mov    $0xe,%edi
  4011dc:	e8 5f fb ff ff       	callq  400d40 <signal@plt>
  4011e1:	bf 05 00 00 00       	mov    $0x5,%edi
  4011e6:	e8 25 fb ff ff       	callq  400d10 <alarm@plt>
  4011eb:	48 8d 2d a8 1e 00 00 	lea    0x1ea8(%rip),%rbp        # 40309a <_IO_stdin_used+0x1ea>
  4011f2:	eb bd                	jmp    4011b1 <main+0x51>
  4011f4:	48 8b 3b             	mov    (%rbx),%rdi
  4011f7:	e8 6b fd ff ff       	callq  400f67 <usage>
  4011fc:	48 8d 35 2c 21 00 00 	lea    0x212c(%rip),%rsi        # 40332f <_IO_stdin_used+0x47f>
  401203:	48 8b 3d 9e 32 20 00 	mov    0x20329e(%rip),%rdi        # 6044a8 <optarg@@GLIBC_2.2.5>
  40120a:	e8 e1 fb ff ff       	callq  400df0 <fopen@plt>
  40120f:	48 89 05 da 32 20 00 	mov    %rax,0x2032da(%rip)        # 6044f0 <infile>
  401216:	48 85 c0             	test   %rax,%rax
  401219:	75 42                	jne    40125d <main+0xfd>
  40121b:	48 8b 0d 86 32 20 00 	mov    0x203286(%rip),%rcx        # 6044a8 <optarg@@GLIBC_2.2.5>
  401222:	48 8d 15 79 1e 00 00 	lea    0x1e79(%rip),%rdx        # 4030a2 <_IO_stdin_used+0x1f2>
  401229:	be 01 00 00 00       	mov    $0x1,%esi
  40122e:	48 8b 3d 8b 32 20 00 	mov    0x20328b(%rip),%rdi        # 6044c0 <stderr@@GLIBC_2.2.5>
  401235:	e8 16 fc ff ff       	callq  400e50 <__fprintf_chk@plt>
  40123a:	b8 01 00 00 00       	mov    $0x1,%eax
  40123f:	e9 d9 00 00 00       	jmpq   40131d <main+0x1bd>
  401244:	ba 10 00 00 00       	mov    $0x10,%edx
  401249:	be 00 00 00 00       	mov    $0x0,%esi
  40124e:	48 8b 3d 53 32 20 00 	mov    0x203253(%rip),%rdi        # 6044a8 <optarg@@GLIBC_2.2.5>
  401255:	e8 b6 fb ff ff       	callq  400e10 <strtoul@plt>
  40125a:	41 89 c6             	mov    %eax,%r14d
  40125d:	48 89 ea             	mov    %rbp,%rdx
  401260:	48 89 de             	mov    %rbx,%rsi
  401263:	44 89 e7             	mov    %r12d,%edi
  401266:	e8 95 fb ff ff       	callq  400e00 <getopt@plt>
  40126b:	3c ff                	cmp    $0xff,%al
  40126d:	74 62                	je     4012d1 <main+0x171>
  40126f:	0f be d0             	movsbl %al,%edx
  401272:	83 e8 61             	sub    $0x61,%eax
  401275:	3c 10                	cmp    $0x10,%al
  401277:	77 3a                	ja     4012b3 <main+0x153>
  401279:	0f b6 c0             	movzbl %al,%eax
  40127c:	48 8d 0d 5d 1e 00 00 	lea    0x1e5d(%rip),%rcx        # 4030e0 <_IO_stdin_used+0x230>
  401283:	48 63 04 81          	movslq (%rcx,%rax,4),%rax
  401287:	48 01 c8             	add    %rcx,%rax
  40128a:	ff e0                	jmpq   *%rax
  40128c:	ba 0a 00 00 00       	mov    $0xa,%edx
  401291:	be 00 00 00 00       	mov    $0x0,%esi
  401296:	48 8b 3d 0b 32 20 00 	mov    0x20320b(%rip),%rdi        # 6044a8 <optarg@@GLIBC_2.2.5>
  40129d:	e8 ce fa ff ff       	callq  400d70 <strtol@plt>
  4012a2:	41 89 c5             	mov    %eax,%r13d
  4012a5:	eb b6                	jmp    40125d <main+0xfd>
  4012a7:	c7 05 d7 31 20 00 00 	movl   $0x0,0x2031d7(%rip)        # 604488 <notify>
  4012ae:	00 00 00 
  4012b1:	eb aa                	jmp    40125d <main+0xfd>
  4012b3:	48 8d 35 05 1e 00 00 	lea    0x1e05(%rip),%rsi        # 4030bf <_IO_stdin_used+0x20f>
  4012ba:	bf 01 00 00 00       	mov    $0x1,%edi
  4012bf:	b8 00 00 00 00       	mov    $0x0,%eax
  4012c4:	e8 17 fb ff ff       	callq  400de0 <__printf_chk@plt>
  4012c9:	48 8b 3b             	mov    (%rbx),%rdi
  4012cc:	e8 96 fc ff ff       	callq  400f67 <usage>
  4012d1:	be 00 00 00 00       	mov    $0x0,%esi
  4012d6:	44 89 ef             	mov    %r13d,%edi
  4012d9:	e8 25 fd ff ff       	callq  401003 <initialize_target>
  4012de:	83 3d 23 32 20 00 00 	cmpl   $0x0,0x203223(%rip)        # 604508 <is_checker>
  4012e5:	74 09                	je     4012f0 <main+0x190>
  4012e7:	44 39 35 12 32 20 00 	cmp    %r14d,0x203212(%rip)        # 604500 <authkey>
  4012ee:	75 36                	jne    401326 <main+0x1c6>
  4012f0:	8b 15 0e 32 20 00    	mov    0x20320e(%rip),%edx        # 604504 <cookie>
  4012f6:	48 8d 35 d5 1d 00 00 	lea    0x1dd5(%rip),%rsi        # 4030d2 <_IO_stdin_used+0x222>
  4012fd:	bf 01 00 00 00       	mov    $0x1,%edi
  401302:	b8 00 00 00 00       	mov    $0x0,%eax
  401307:	e8 d4 fa ff ff       	callq  400de0 <__printf_chk@plt>
  40130c:	48 8b 3d 6d 31 20 00 	mov    0x20316d(%rip),%rdi        # 604480 <buf_offset>
  401313:	e8 d7 0c 00 00       	callq  401fef <stable_launch>
  401318:	b8 00 00 00 00       	mov    $0x0,%eax
  40131d:	5b                   	pop    %rbx
  40131e:	5d                   	pop    %rbp
  40131f:	41 5c                	pop    %r12
  401321:	41 5d                	pop    %r13
  401323:	41 5e                	pop    %r14
  401325:	c3                   	retq   
  401326:	44 89 f2             	mov    %r14d,%edx
  401329:	48 8d 35 c8 1c 00 00 	lea    0x1cc8(%rip),%rsi        # 402ff8 <_IO_stdin_used+0x148>
  401330:	bf 01 00 00 00       	mov    $0x1,%edi
  401335:	b8 00 00 00 00       	mov    $0x0,%eax
  40133a:	e8 a1 fa ff ff       	callq  400de0 <__printf_chk@plt>
  40133f:	b8 00 00 00 00       	mov    $0x0,%eax
  401344:	e8 fe 06 00 00       	callq  401a47 <check_fail>
  401349:	eb a5                	jmp    4012f0 <main+0x190>

000000000040134b <scramble>:
  40134b:	48 83 ec 38          	sub    $0x38,%rsp
  40134f:	64 48 8b 04 25 28 00 	mov    %fs:0x28,%rax
  401356:	00 00 
  401358:	48 89 44 24 28       	mov    %rax,0x28(%rsp)
  40135d:	31 c0                	xor    %eax,%eax
  40135f:	eb 10                	jmp    401371 <scramble+0x26>
  401361:	69 d0 bf 5d 00 00    	imul   $0x5dbf,%eax,%edx
  401367:	01 fa                	add    %edi,%edx
  401369:	89 c1                	mov    %eax,%ecx
  40136b:	89 14 8c             	mov    %edx,(%rsp,%rcx,4)
  40136e:	83 c0 01             	add    $0x1,%eax
  401371:	83 f8 09             	cmp    $0x9,%eax
  401374:	76 eb                	jbe    401361 <scramble+0x16>
  401376:	8b 44 24 20          	mov    0x20(%rsp),%eax
  40137a:	69 c0 a1 12 00 00    	imul   $0x12a1,%eax,%eax
  401380:	89 44 24 20          	mov    %eax,0x20(%rsp)
  401384:	8b 44 24 04          	mov    0x4(%rsp),%eax
  401388:	69 c0 23 77 00 00    	imul   $0x7723,%eax,%eax
  40138e:	89 44 24 04          	mov    %eax,0x4(%rsp)
  401392:	8b 44 24 14          	mov    0x14(%rsp),%eax
  401396:	69 c0 e9 7f 00 00    	imul   $0x7fe9,%eax,%eax
  40139c:	89 44 24 14          	mov    %eax,0x14(%rsp)
  4013a0:	8b 44 24 20          	mov    0x20(%rsp),%eax
  4013a4:	69 c0 98 d9 00 00    	imul   $0xd998,%eax,%eax
  4013aa:	89 44 24 20          	mov    %eax,0x20(%rsp)
  4013ae:	8b 44 24 1c          	mov    0x1c(%rsp),%eax
  4013b2:	69 c0 dc 3b 00 00    	imul   $0x3bdc,%eax,%eax
  4013b8:	89 44 24 1c          	mov    %eax,0x1c(%rsp)
  4013bc:	8b 44 24 08          	mov    0x8(%rsp),%eax
  4013c0:	69 c0 25 65 00 00    	imul   $0x6525,%eax,%eax
  4013c6:	89 44 24 08          	mov    %eax,0x8(%rsp)
  4013ca:	8b 04 24             	mov    (%rsp),%eax
  4013cd:	69 c0 25 4c 00 00    	imul   $0x4c25,%eax,%eax
  4013d3:	89 04 24             	mov    %eax,(%rsp)
  4013d6:	8b 44 24 08          	mov    0x8(%rsp),%eax
  4013da:	69 c0 69 e9 00 00    	imul   $0xe969,%eax,%eax
  4013e0:	89 44 24 08          	mov    %eax,0x8(%rsp)
  4013e4:	8b 44 24 0c          	mov    0xc(%rsp),%eax
  4013e8:	69 c0 31 c2 00 00    	imul   $0xc231,%eax,%eax
  4013ee:	89 44 24 0c          	mov    %eax,0xc(%rsp)
  4013f2:	8b 44 24 20          	mov    0x20(%rsp),%eax
  4013f6:	69 c0 bf 9c 00 00    	imul   $0x9cbf,%eax,%eax
  4013fc:	89 44 24 20          	mov    %eax,0x20(%rsp)
  401400:	8b 44 24 20          	mov    0x20(%rsp),%eax
  401404:	69 c0 53 af 00 00    	imul   $0xaf53,%eax,%eax
  40140a:	89 44 24 20          	mov    %eax,0x20(%rsp)
  40140e:	8b 44 24 0c          	mov    0xc(%rsp),%eax
  401412:	69 c0 87 0f 00 00    	imul   $0xf87,%eax,%eax
  401418:	89 44 24 0c          	mov    %eax,0xc(%rsp)
  40141c:	8b 44 24 08          	mov    0x8(%rsp),%eax
  401420:	69 c0 57 2e 00 00    	imul   $0x2e57,%eax,%eax
  401426:	89 44 24 08          	mov    %eax,0x8(%rsp)
  40142a:	8b 44 24 20          	mov    0x20(%rsp),%eax
  40142e:	69 c0 e7 c6 00 00    	imul   $0xc6e7,%eax,%eax
  401434:	89 44 24 20          	mov    %eax,0x20(%rsp)
  401438:	8b 44 24 20          	mov    0x20(%rsp),%eax
  40143c:	69 c0 e1 1d 00 00    	imul   $0x1de1,%eax,%eax
  401442:	89 44 24 20          	mov    %eax,0x20(%rsp)
  401446:	8b 44 24 20          	mov    0x20(%rsp),%eax
  40144a:	69 c0 1a ce 00 00    	imul   $0xce1a,%eax,%eax
  401450:	89 44 24 20          	mov    %eax,0x20(%rsp)
  401454:	8b 44 24 24          	mov    0x24(%rsp),%eax
  401458:	69 c0 08 11 00 00    	imul   $0x1108,%eax,%eax
  40145e:	89 44 24 24          	mov    %eax,0x24(%rsp)
  401462:	8b 44 24 20          	mov    0x20(%rsp),%eax
  401466:	69 c0 7a 1d 00 00    	imul   $0x1d7a,%eax,%eax
  40146c:	89 44 24 20          	mov    %eax,0x20(%rsp)
  401470:	8b 44 24 08          	mov    0x8(%rsp),%eax
  401474:	69 c0 87 96 00 00    	imul   $0x9687,%eax,%eax
  40147a:	89 44 24 08          	mov    %eax,0x8(%rsp)
  40147e:	8b 44 24 24          	mov    0x24(%rsp),%eax
  401482:	69 c0 1e fb 00 00    	imul   $0xfb1e,%eax,%eax
  401488:	89 44 24 24          	mov    %eax,0x24(%rsp)
  40148c:	8b 44 24 14          	mov    0x14(%rsp),%eax
  401490:	69 c0 71 c8 00 00    	imul   $0xc871,%eax,%eax
  401496:	89 44 24 14          	mov    %eax,0x14(%rsp)
  40149a:	8b 44 24 24          	mov    0x24(%rsp),%eax
  40149e:	69 c0 07 6a 00 00    	imul   $0x6a07,%eax,%eax
  4014a4:	89 44 24 24          	mov    %eax,0x24(%rsp)
  4014a8:	8b 44 24 0c          	mov    0xc(%rsp),%eax
  4014ac:	69 c0 c3 44 00 00    	imul   $0x44c3,%eax,%eax
  4014b2:	89 44 24 0c          	mov    %eax,0xc(%rsp)
  4014b6:	8b 04 24             	mov    (%rsp),%eax
  4014b9:	69 c0 95 91 00 00    	imul   $0x9195,%eax,%eax
  4014bf:	89 04 24             	mov    %eax,(%rsp)
  4014c2:	8b 44 24 10          	mov    0x10(%rsp),%eax
  4014c6:	69 c0 38 c2 00 00    	imul   $0xc238,%eax,%eax
  4014cc:	89 44 24 10          	mov    %eax,0x10(%rsp)
  4014d0:	8b 04 24             	mov    (%rsp),%eax
  4014d3:	69 c0 f7 0f 00 00    	imul   $0xff7,%eax,%eax
  4014d9:	89 04 24             	mov    %eax,(%rsp)
  4014dc:	8b 04 24             	mov    (%rsp),%eax
  4014df:	69 c0 2c fd 00 00    	imul   $0xfd2c,%eax,%eax
  4014e5:	89 04 24             	mov    %eax,(%rsp)
  4014e8:	8b 44 24 14          	mov    0x14(%rsp),%eax
  4014ec:	69 c0 df 96 00 00    	imul   $0x96df,%eax,%eax
  4014f2:	89 44 24 14          	mov    %eax,0x14(%rsp)
  4014f6:	8b 44 24 18          	mov    0x18(%rsp),%eax
  4014fa:	69 c0 6b d7 00 00    	imul   $0xd76b,%eax,%eax
  401500:	89 44 24 18          	mov    %eax,0x18(%rsp)
  401504:	8b 44 24 10          	mov    0x10(%rsp),%eax
  401508:	69 c0 dd 9b 00 00    	imul   $0x9bdd,%eax,%eax
  40150e:	89 44 24 10          	mov    %eax,0x10(%rsp)
  401512:	8b 44 24 24          	mov    0x24(%rsp),%eax
  401516:	69 c0 bd f7 00 00    	imul   $0xf7bd,%eax,%eax
  40151c:	89 44 24 24          	mov    %eax,0x24(%rsp)
  401520:	8b 44 24 1c          	mov    0x1c(%rsp),%eax
  401524:	69 c0 cf 25 00 00    	imul   $0x25cf,%eax,%eax
  40152a:	89 44 24 1c          	mov    %eax,0x1c(%rsp)
  40152e:	8b 44 24 1c          	mov    0x1c(%rsp),%eax
  401532:	69 c0 35 af 00 00    	imul   $0xaf35,%eax,%eax
  401538:	89 44 24 1c          	mov    %eax,0x1c(%rsp)
  40153c:	8b 44 24 20          	mov    0x20(%rsp),%eax
  401540:	69 c0 b7 99 00 00    	imul   $0x99b7,%eax,%eax
  401546:	89 44 24 20          	mov    %eax,0x20(%rsp)
  40154a:	8b 44 24 04          	mov    0x4(%rsp),%eax
  40154e:	69 c0 5b 3a 00 00    	imul   $0x3a5b,%eax,%eax
  401554:	89 44 24 04          	mov    %eax,0x4(%rsp)
  401558:	8b 04 24             	mov    (%rsp),%eax
  40155b:	69 c0 1f 18 00 00    	imul   $0x181f,%eax,%eax
  401561:	89 04 24             	mov    %eax,(%rsp)
  401564:	8b 04 24             	mov    (%rsp),%eax
  401567:	69 c0 18 f5 00 00    	imul   $0xf518,%eax,%eax
  40156d:	89 04 24             	mov    %eax,(%rsp)
  401570:	8b 44 24 18          	mov    0x18(%rsp),%eax
  401574:	69 c0 63 17 00 00    	imul   $0x1763,%eax,%eax
  40157a:	89 44 24 18          	mov    %eax,0x18(%rsp)
  40157e:	8b 44 24 10          	mov    0x10(%rsp),%eax
  401582:	69 c0 97 d5 00 00    	imul   $0xd597,%eax,%eax
  401588:	89 44 24 10          	mov    %eax,0x10(%rsp)
  40158c:	8b 44 24 10          	mov    0x10(%rsp),%eax
  401590:	69 c0 d0 40 00 00    	imul   $0x40d0,%eax,%eax
  401596:	89 44 24 10          	mov    %eax,0x10(%rsp)
  40159a:	8b 44 24 24          	mov    0x24(%rsp),%eax
  40159e:	69 c0 4c d7 00 00    	imul   $0xd74c,%eax,%eax
  4015a4:	89 44 24 24          	mov    %eax,0x24(%rsp)
  4015a8:	8b 44 24 08          	mov    0x8(%rsp),%eax
  4015ac:	69 c0 5c 09 00 00    	imul   $0x95c,%eax,%eax
  4015b2:	89 44 24 08          	mov    %eax,0x8(%rsp)
  4015b6:	8b 44 24 04          	mov    0x4(%rsp),%eax
  4015ba:	69 c0 46 70 00 00    	imul   $0x7046,%eax,%eax
  4015c0:	89 44 24 04          	mov    %eax,0x4(%rsp)
  4015c4:	8b 44 24 0c          	mov    0xc(%rsp),%eax
  4015c8:	69 c0 fb ff 00 00    	imul   $0xfffb,%eax,%eax
  4015ce:	89 44 24 0c          	mov    %eax,0xc(%rsp)
  4015d2:	8b 44 24 0c          	mov    0xc(%rsp),%eax
  4015d6:	69 c0 02 fe 00 00    	imul   $0xfe02,%eax,%eax
  4015dc:	89 44 24 0c          	mov    %eax,0xc(%rsp)
  4015e0:	8b 44 24 24          	mov    0x24(%rsp),%eax
  4015e4:	69 c0 fd 3c 00 00    	imul   $0x3cfd,%eax,%eax
  4015ea:	89 44 24 24          	mov    %eax,0x24(%rsp)
  4015ee:	8b 44 24 18          	mov    0x18(%rsp),%eax
  4015f2:	69 c0 d0 05 00 00    	imul   $0x5d0,%eax,%eax
  4015f8:	89 44 24 18          	mov    %eax,0x18(%rsp)
  4015fc:	8b 44 24 14          	mov    0x14(%rsp),%eax
  401600:	69 c0 84 fe 00 00    	imul   $0xfe84,%eax,%eax
  401606:	89 44 24 14          	mov    %eax,0x14(%rsp)
  40160a:	8b 44 24 08          	mov    0x8(%rsp),%eax
  40160e:	69 c0 15 a6 00 00    	imul   $0xa615,%eax,%eax
  401614:	89 44 24 08          	mov    %eax,0x8(%rsp)
  401618:	8b 44 24 10          	mov    0x10(%rsp),%eax
  40161c:	69 c0 c1 fa 00 00    	imul   $0xfac1,%eax,%eax
  401622:	89 44 24 10          	mov    %eax,0x10(%rsp)
  401626:	8b 44 24 08          	mov    0x8(%rsp),%eax
  40162a:	69 c0 11 2d 00 00    	imul   $0x2d11,%eax,%eax
  401630:	89 44 24 08          	mov    %eax,0x8(%rsp)
  401634:	8b 44 24 10          	mov    0x10(%rsp),%eax
  401638:	69 c0 3d e3 00 00    	imul   $0xe33d,%eax,%eax
  40163e:	89 44 24 10          	mov    %eax,0x10(%rsp)
  401642:	8b 44 24 20          	mov    0x20(%rsp),%eax
  401646:	69 c0 07 95 00 00    	imul   $0x9507,%eax,%eax
  40164c:	89 44 24 20          	mov    %eax,0x20(%rsp)
  401650:	8b 44 24 18          	mov    0x18(%rsp),%eax
  401654:	69 c0 06 5c 00 00    	imul   $0x5c06,%eax,%eax
  40165a:	89 44 24 18          	mov    %eax,0x18(%rsp)
  40165e:	8b 04 24             	mov    (%rsp),%eax
  401661:	69 c0 99 a3 00 00    	imul   $0xa399,%eax,%eax
  401667:	89 04 24             	mov    %eax,(%rsp)
  40166a:	8b 44 24 0c          	mov    0xc(%rsp),%eax
  40166e:	69 c0 6e 02 00 00    	imul   $0x26e,%eax,%eax
  401674:	89 44 24 0c          	mov    %eax,0xc(%rsp)
  401678:	8b 44 24 20          	mov    0x20(%rsp),%eax
  40167c:	69 c0 9e ed 00 00    	imul   $0xed9e,%eax,%eax
  401682:	89 44 24 20          	mov    %eax,0x20(%rsp)
  401686:	8b 04 24             	mov    (%rsp),%eax
  401689:	69 c0 5e 4f 00 00    	imul   $0x4f5e,%eax,%eax
  40168f:	89 04 24             	mov    %eax,(%rsp)
  401692:	8b 44 24 14          	mov    0x14(%rsp),%eax
  401696:	69 c0 06 ac 00 00    	imul   $0xac06,%eax,%eax
  40169c:	89 44 24 14          	mov    %eax,0x14(%rsp)
  4016a0:	8b 44 24 08          	mov    0x8(%rsp),%eax
  4016a4:	69 c0 95 a5 00 00    	imul   $0xa595,%eax,%eax
  4016aa:	89 44 24 08          	mov    %eax,0x8(%rsp)
  4016ae:	8b 44 24 18          	mov    0x18(%rsp),%eax
  4016b2:	69 c0 32 eb 00 00    	imul   $0xeb32,%eax,%eax
  4016b8:	89 44 24 18          	mov    %eax,0x18(%rsp)
  4016bc:	8b 44 24 14          	mov    0x14(%rsp),%eax
  4016c0:	69 c0 c7 9f 00 00    	imul   $0x9fc7,%eax,%eax
  4016c6:	89 44 24 14          	mov    %eax,0x14(%rsp)
  4016ca:	8b 44 24 24          	mov    0x24(%rsp),%eax
  4016ce:	69 c0 5f 45 00 00    	imul   $0x455f,%eax,%eax
  4016d4:	89 44 24 24          	mov    %eax,0x24(%rsp)
  4016d8:	8b 44 24 20          	mov    0x20(%rsp),%eax
  4016dc:	69 c0 08 a6 00 00    	imul   $0xa608,%eax,%eax
  4016e2:	89 44 24 20          	mov    %eax,0x20(%rsp)
  4016e6:	8b 44 24 18          	mov    0x18(%rsp),%eax
  4016ea:	69 c0 87 36 00 00    	imul   $0x3687,%eax,%eax
  4016f0:	89 44 24 18          	mov    %eax,0x18(%rsp)
  4016f4:	8b 44 24 24          	mov    0x24(%rsp),%eax
  4016f8:	69 c0 e5 cb 00 00    	imul   $0xcbe5,%eax,%eax
  4016fe:	89 44 24 24          	mov    %eax,0x24(%rsp)
  401702:	8b 44 24 08          	mov    0x8(%rsp),%eax
  401706:	69 c0 aa b3 00 00    	imul   $0xb3aa,%eax,%eax
  40170c:	89 44 24 08          	mov    %eax,0x8(%rsp)
  401710:	8b 44 24 04          	mov    0x4(%rsp),%eax
  401714:	69 c0 c3 85 00 00    	imul   $0x85c3,%eax,%eax
  40171a:	89 44 24 04          	mov    %eax,0x4(%rsp)
  40171e:	8b 44 24 1c          	mov    0x1c(%rsp),%eax
  401722:	69 c0 c2 a9 00 00    	imul   $0xa9c2,%eax,%eax
  401728:	89 44 24 1c          	mov    %eax,0x1c(%rsp)
  40172c:	8b 44 24 14          	mov    0x14(%rsp),%eax
  401730:	69 c0 50 b3 00 00    	imul   $0xb350,%eax,%eax
  401736:	89 44 24 14          	mov    %eax,0x14(%rsp)
  40173a:	8b 44 24 08          	mov    0x8(%rsp),%eax
  40173e:	69 c0 9f 7e 00 00    	imul   $0x7e9f,%eax,%eax
  401744:	89 44 24 08          	mov    %eax,0x8(%rsp)
  401748:	8b 44 24 1c          	mov    0x1c(%rsp),%eax
  40174c:	69 c0 41 c8 00 00    	imul   $0xc841,%eax,%eax
  401752:	89 44 24 1c          	mov    %eax,0x1c(%rsp)
  401756:	8b 44 24 1c          	mov    0x1c(%rsp),%eax
  40175a:	69 c0 89 c1 00 00    	imul   $0xc189,%eax,%eax
  401760:	89 44 24 1c          	mov    %eax,0x1c(%rsp)
  401764:	8b 44 24 14          	mov    0x14(%rsp),%eax
  401768:	69 c0 21 ca 00 00    	imul   $0xca21,%eax,%eax
  40176e:	89 44 24 14          	mov    %eax,0x14(%rsp)
  401772:	8b 44 24 18          	mov    0x18(%rsp),%eax
  401776:	69 c0 f8 66 00 00    	imul   $0x66f8,%eax,%eax
  40177c:	89 44 24 18          	mov    %eax,0x18(%rsp)
  401780:	8b 44 24 0c          	mov    0xc(%rsp),%eax
  401784:	69 c0 97 17 00 00    	imul   $0x1797,%eax,%eax
  40178a:	89 44 24 0c          	mov    %eax,0xc(%rsp)
  40178e:	8b 44 24 08          	mov    0x8(%rsp),%eax
  401792:	69 c0 49 52 00 00    	imul   $0x5249,%eax,%eax
  401798:	89 44 24 08          	mov    %eax,0x8(%rsp)
  40179c:	8b 44 24 20          	mov    0x20(%rsp),%eax
  4017a0:	69 c0 2e 43 00 00    	imul   $0x432e,%eax,%eax
  4017a6:	89 44 24 20          	mov    %eax,0x20(%rsp)
  4017aa:	ba 00 00 00 00       	mov    $0x0,%edx
  4017af:	b8 00 00 00 00       	mov    $0x0,%eax
  4017b4:	eb 0a                	jmp    4017c0 <scramble+0x475>
  4017b6:	89 d1                	mov    %edx,%ecx
  4017b8:	8b 0c 8c             	mov    (%rsp,%rcx,4),%ecx
  4017bb:	01 c8                	add    %ecx,%eax
  4017bd:	83 c2 01             	add    $0x1,%edx
  4017c0:	83 fa 09             	cmp    $0x9,%edx
  4017c3:	76 f1                	jbe    4017b6 <scramble+0x46b>
  4017c5:	48 8b 74 24 28       	mov    0x28(%rsp),%rsi
  4017ca:	64 48 33 34 25 28 00 	xor    %fs:0x28,%rsi
  4017d1:	00 00 
  4017d3:	75 05                	jne    4017da <scramble+0x48f>
  4017d5:	48 83 c4 38          	add    $0x38,%rsp
  4017d9:	c3                   	retq   
  4017da:	e8 01 f5 ff ff       	callq  400ce0 <__stack_chk_fail@plt>

00000000004017df <getbuf>:
  4017df:	48 83 ec 38          	sub    $0x38,%rsp
  4017e3:	48 89 e7             	mov    %rsp,%rdi
  4017e6:	e8 94 02 00 00       	callq  401a7f <Gets>
  4017eb:	b8 01 00 00 00       	mov    $0x1,%eax
  4017f0:	48 83 c4 38          	add    $0x38,%rsp
  4017f4:	c3                   	retq   

00000000004017f5 <touch1>:
  4017f5:	48 83 ec 08          	sub    $0x8,%rsp
  4017f9:	c7 05 f9 2c 20 00 01 	movl   $0x1,0x202cf9(%rip)        # 6044fc <vlevel>
  401800:	00 00 00 
  401803:	48 8d 3d 76 19 00 00 	lea    0x1976(%rip),%rdi        # 403180 <_IO_stdin_used+0x2d0>
  40180a:	e8 b1 f4 ff ff       	callq  400cc0 <puts@plt>
  40180f:	bf 01 00 00 00       	mov    $0x1,%edi
  401814:	e8 d6 04 00 00       	callq  401cef <validate>
  401819:	bf 00 00 00 00       	mov    $0x0,%edi
  40181e:	e8 0d f6 ff ff       	callq  400e30 <exit@plt>

0000000000401823 <touch2>:
  401823:	48 83 ec 08          	sub    $0x8,%rsp
  401827:	89 fa                	mov    %edi,%edx
  401829:	c7 05 c9 2c 20 00 02 	movl   $0x2,0x202cc9(%rip)        # 6044fc <vlevel>
  401830:	00 00 00 
  401833:	39 3d cb 2c 20 00    	cmp    %edi,0x202ccb(%rip)        # 604504 <cookie>
  401839:	74 2a                	je     401865 <touch2+0x42>
  40183b:	48 8d 35 8e 19 00 00 	lea    0x198e(%rip),%rsi        # 4031d0 <_IO_stdin_used+0x320>
  401842:	bf 01 00 00 00       	mov    $0x1,%edi
  401847:	b8 00 00 00 00       	mov    $0x0,%eax
  40184c:	e8 8f f5 ff ff       	callq  400de0 <__printf_chk@plt>
  401851:	bf 02 00 00 00       	mov    $0x2,%edi
  401856:	e8 64 05 00 00       	callq  401dbf <fail>
  40185b:	bf 00 00 00 00       	mov    $0x0,%edi
  401860:	e8 cb f5 ff ff       	callq  400e30 <exit@plt>
  401865:	48 8d 35 3c 19 00 00 	lea    0x193c(%rip),%rsi        # 4031a8 <_IO_stdin_used+0x2f8>
  40186c:	bf 01 00 00 00       	mov    $0x1,%edi
  401871:	b8 00 00 00 00       	mov    $0x0,%eax
  401876:	e8 65 f5 ff ff       	callq  400de0 <__printf_chk@plt>
  40187b:	bf 02 00 00 00       	mov    $0x2,%edi
  401880:	e8 6a 04 00 00       	callq  401cef <validate>
  401885:	eb d4                	jmp    40185b <touch2+0x38>

0000000000401887 <hexmatch>:
  401887:	41 54                	push   %r12
  401889:	55                   	push   %rbp
  40188a:	53                   	push   %rbx
  40188b:	48 83 c4 80          	add    $0xffffffffffffff80,%rsp
  40188f:	89 fd                	mov    %edi,%ebp
  401891:	48 89 f3             	mov    %rsi,%rbx
  401894:	64 48 8b 04 25 28 00 	mov    %fs:0x28,%rax
  40189b:	00 00 
  40189d:	48 89 44 24 78       	mov    %rax,0x78(%rsp)
  4018a2:	31 c0                	xor    %eax,%eax
  4018a4:	e8 f7 f4 ff ff       	callq  400da0 <random@plt>
  4018a9:	48 89 c1             	mov    %rax,%rcx
  4018ac:	48 ba 0b d7 a3 70 3d 	movabs $0xa3d70a3d70a3d70b,%rdx
  4018b3:	0a d7 a3 
  4018b6:	48 f7 ea             	imul   %rdx
  4018b9:	48 01 ca             	add    %rcx,%rdx
  4018bc:	48 c1 fa 06          	sar    $0x6,%rdx
  4018c0:	48 89 c8             	mov    %rcx,%rax
  4018c3:	48 c1 f8 3f          	sar    $0x3f,%rax
  4018c7:	48 29 c2             	sub    %rax,%rdx
  4018ca:	48 8d 04 92          	lea    (%rdx,%rdx,4),%rax
  4018ce:	48 8d 14 80          	lea    (%rax,%rax,4),%rdx
  4018d2:	48 8d 04 95 00 00 00 	lea    0x0(,%rdx,4),%rax
  4018d9:	00 
  4018da:	48 29 c1             	sub    %rax,%rcx
  4018dd:	4c 8d 24 0c          	lea    (%rsp,%rcx,1),%r12
  4018e1:	41 89 e8             	mov    %ebp,%r8d
  4018e4:	48 8d 0d b2 18 00 00 	lea    0x18b2(%rip),%rcx        # 40319d <_IO_stdin_used+0x2ed>
  4018eb:	48 c7 c2 ff ff ff ff 	mov    $0xffffffffffffffff,%rdx
  4018f2:	be 01 00 00 00       	mov    $0x1,%esi
  4018f7:	4c 89 e7             	mov    %r12,%rdi
  4018fa:	b8 00 00 00 00       	mov    $0x0,%eax
  4018ff:	e8 5c f5 ff ff       	callq  400e60 <__sprintf_chk@plt>
  401904:	ba 09 00 00 00       	mov    $0x9,%edx
  401909:	4c 89 e6             	mov    %r12,%rsi
  40190c:	48 89 df             	mov    %rbx,%rdi
  40190f:	e8 8c f3 ff ff       	callq  400ca0 <strncmp@plt>
  401914:	85 c0                	test   %eax,%eax
  401916:	0f 94 c0             	sete   %al
  401919:	48 8b 5c 24 78       	mov    0x78(%rsp),%rbx
  40191e:	64 48 33 1c 25 28 00 	xor    %fs:0x28,%rbx
  401925:	00 00 
  401927:	75 0c                	jne    401935 <hexmatch+0xae>
  401929:	0f b6 c0             	movzbl %al,%eax
  40192c:	48 83 ec 80          	sub    $0xffffffffffffff80,%rsp
  401930:	5b                   	pop    %rbx
  401931:	5d                   	pop    %rbp
  401932:	41 5c                	pop    %r12
  401934:	c3                   	retq   
  401935:	e8 a6 f3 ff ff       	callq  400ce0 <__stack_chk_fail@plt>

000000000040193a <touch3>:
  40193a:	53                   	push   %rbx
  40193b:	48 89 fb             	mov    %rdi,%rbx
  40193e:	c7 05 b4 2b 20 00 03 	movl   $0x3,0x202bb4(%rip)        # 6044fc <vlevel>
  401945:	00 00 00 
  401948:	48 89 fe             	mov    %rdi,%rsi
  40194b:	8b 3d b3 2b 20 00    	mov    0x202bb3(%rip),%edi        # 604504 <cookie>
  401951:	e8 31 ff ff ff       	callq  401887 <hexmatch>
  401956:	85 c0                	test   %eax,%eax
  401958:	74 2d                	je     401987 <touch3+0x4d>
  40195a:	48 89 da             	mov    %rbx,%rdx
  40195d:	48 8d 35 94 18 00 00 	lea    0x1894(%rip),%rsi        # 4031f8 <_IO_stdin_used+0x348>
  401964:	bf 01 00 00 00       	mov    $0x1,%edi
  401969:	b8 00 00 00 00       	mov    $0x0,%eax
  40196e:	e8 6d f4 ff ff       	callq  400de0 <__printf_chk@plt>
  401973:	bf 03 00 00 00       	mov    $0x3,%edi
  401978:	e8 72 03 00 00       	callq  401cef <validate>
  40197d:	bf 00 00 00 00       	mov    $0x0,%edi
  401982:	e8 a9 f4 ff ff       	callq  400e30 <exit@plt>
  401987:	48 89 da             	mov    %rbx,%rdx
  40198a:	48 8d 35 8f 18 00 00 	lea    0x188f(%rip),%rsi        # 403220 <_IO_stdin_used+0x370>
  401991:	bf 01 00 00 00       	mov    $0x1,%edi
  401996:	b8 00 00 00 00       	mov    $0x0,%eax
  40199b:	e8 40 f4 ff ff       	callq  400de0 <__printf_chk@plt>
  4019a0:	bf 03 00 00 00       	mov    $0x3,%edi
  4019a5:	e8 15 04 00 00       	callq  401dbf <fail>
  4019aa:	eb d1                	jmp    40197d <touch3+0x43>

00000000004019ac <test>:
  4019ac:	48 83 ec 08          	sub    $0x8,%rsp
  4019b0:	b8 00 00 00 00       	mov    $0x0,%eax
  4019b5:	e8 25 fe ff ff       	callq  4017df <getbuf>
  4019ba:	89 c2                	mov    %eax,%edx
  4019bc:	48 8d 35 85 18 00 00 	lea    0x1885(%rip),%rsi        # 403248 <_IO_stdin_used+0x398>
  4019c3:	bf 01 00 00 00       	mov    $0x1,%edi
  4019c8:	b8 00 00 00 00       	mov    $0x0,%eax
  4019cd:	e8 0e f4 ff ff       	callq  400de0 <__printf_chk@plt>
  4019d2:	48 83 c4 08          	add    $0x8,%rsp
  4019d6:	c3                   	retq   

00000000004019d7 <save_char>:
  4019d7:	8b 05 47 37 20 00    	mov    0x203747(%rip),%eax        # 605124 <gets_cnt>
  4019dd:	3d ff 03 00 00       	cmp    $0x3ff,%eax
  4019e2:	7f 4a                	jg     401a2e <save_char+0x57>
  4019e4:	89 f9                	mov    %edi,%ecx
  4019e6:	c0 e9 04             	shr    $0x4,%cl
  4019e9:	8d 14 40             	lea    (%rax,%rax,2),%edx
  4019ec:	4c 8d 05 7d 1b 00 00 	lea    0x1b7d(%rip),%r8        # 403570 <trans_char>
  4019f3:	83 e1 0f             	and    $0xf,%ecx
  4019f6:	45 0f b6 0c 08       	movzbl (%r8,%rcx,1),%r9d
  4019fb:	48 8d 0d 1e 2b 20 00 	lea    0x202b1e(%rip),%rcx        # 604520 <gets_buf>
  401a02:	48 63 f2             	movslq %edx,%rsi
  401a05:	44 88 0c 31          	mov    %r9b,(%rcx,%rsi,1)
  401a09:	8d 72 01             	lea    0x1(%rdx),%esi
  401a0c:	83 e7 0f             	and    $0xf,%edi
  401a0f:	41 0f b6 3c 38       	movzbl (%r8,%rdi,1),%edi
  401a14:	48 63 f6             	movslq %esi,%rsi
  401a17:	40 88 3c 31          	mov    %dil,(%rcx,%rsi,1)
  401a1b:	83 c2 02             	add    $0x2,%edx
  401a1e:	48 63 d2             	movslq %edx,%rdx
  401a21:	c6 04 11 20          	movb   $0x20,(%rcx,%rdx,1)
  401a25:	83 c0 01             	add    $0x1,%eax
  401a28:	89 05 f6 36 20 00    	mov    %eax,0x2036f6(%rip)        # 605124 <gets_cnt>
  401a2e:	f3 c3                	repz retq 

0000000000401a30 <save_term>:
  401a30:	8b 05 ee 36 20 00    	mov    0x2036ee(%rip),%eax        # 605124 <gets_cnt>
  401a36:	8d 04 40             	lea    (%rax,%rax,2),%eax
  401a39:	48 98                	cltq   
  401a3b:	48 8d 15 de 2a 20 00 	lea    0x202ade(%rip),%rdx        # 604520 <gets_buf>
  401a42:	c6 04 02 00          	movb   $0x0,(%rdx,%rax,1)
  401a46:	c3                   	retq   

0000000000401a47 <check_fail>:
  401a47:	48 83 ec 08          	sub    $0x8,%rsp
  401a4b:	0f be 15 d6 36 20 00 	movsbl 0x2036d6(%rip),%edx        # 605128 <target_prefix>
  401a52:	4c 8d 05 c7 2a 20 00 	lea    0x202ac7(%rip),%r8        # 604520 <gets_buf>
  401a59:	8b 0d 99 2a 20 00    	mov    0x202a99(%rip),%ecx        # 6044f8 <check_level>
  401a5f:	48 8d 35 05 18 00 00 	lea    0x1805(%rip),%rsi        # 40326b <_IO_stdin_used+0x3bb>
  401a66:	bf 01 00 00 00       	mov    $0x1,%edi
  401a6b:	b8 00 00 00 00       	mov    $0x0,%eax
  401a70:	e8 6b f3 ff ff       	callq  400de0 <__printf_chk@plt>
  401a75:	bf 01 00 00 00       	mov    $0x1,%edi
  401a7a:	e8 b1 f3 ff ff       	callq  400e30 <exit@plt>

0000000000401a7f <Gets>:
  401a7f:	41 54                	push   %r12
  401a81:	55                   	push   %rbp
  401a82:	53                   	push   %rbx
  401a83:	49 89 fc             	mov    %rdi,%r12
  401a86:	c7 05 94 36 20 00 00 	movl   $0x0,0x203694(%rip)        # 605124 <gets_cnt>
  401a8d:	00 00 00 
  401a90:	48 89 fb             	mov    %rdi,%rbx
  401a93:	eb 11                	jmp    401aa6 <Gets+0x27>
  401a95:	48 8d 6b 01          	lea    0x1(%rbx),%rbp
  401a99:	88 03                	mov    %al,(%rbx)
  401a9b:	0f b6 f8             	movzbl %al,%edi
  401a9e:	e8 34 ff ff ff       	callq  4019d7 <save_char>
  401aa3:	48 89 eb             	mov    %rbp,%rbx
  401aa6:	48 8b 3d 43 2a 20 00 	mov    0x202a43(%rip),%rdi        # 6044f0 <infile>
  401aad:	e8 fe f2 ff ff       	callq  400db0 <_IO_getc@plt>
  401ab2:	83 f8 ff             	cmp    $0xffffffff,%eax
  401ab5:	74 05                	je     401abc <Gets+0x3d>
  401ab7:	83 f8 0a             	cmp    $0xa,%eax
  401aba:	75 d9                	jne    401a95 <Gets+0x16>
  401abc:	c6 03 00             	movb   $0x0,(%rbx)
  401abf:	b8 00 00 00 00       	mov    $0x0,%eax
  401ac4:	e8 67 ff ff ff       	callq  401a30 <save_term>
  401ac9:	4c 89 e0             	mov    %r12,%rax
  401acc:	5b                   	pop    %rbx
  401acd:	5d                   	pop    %rbp
  401ace:	41 5c                	pop    %r12
  401ad0:	c3                   	retq   

0000000000401ad1 <notify_server>:
  401ad1:	55                   	push   %rbp
  401ad2:	53                   	push   %rbx
  401ad3:	48 81 ec 18 40 00 00 	sub    $0x4018,%rsp
  401ada:	64 48 8b 04 25 28 00 	mov    %fs:0x28,%rax
  401ae1:	00 00 
  401ae3:	48 89 84 24 08 40 00 	mov    %rax,0x4008(%rsp)
  401aea:	00 
  401aeb:	31 c0                	xor    %eax,%eax
  401aed:	83 3d 14 2a 20 00 00 	cmpl   $0x0,0x202a14(%rip)        # 604508 <is_checker>
  401af4:	0f 85 d2 00 00 00    	jne    401bcc <notify_server+0xfb>
  401afa:	89 fb                	mov    %edi,%ebx
  401afc:	8b 05 22 36 20 00    	mov    0x203622(%rip),%eax        # 605124 <gets_cnt>
  401b02:	83 c0 64             	add    $0x64,%eax
  401b05:	3d 00 20 00 00       	cmp    $0x2000,%eax
  401b0a:	0f 8f dd 00 00 00    	jg     401bed <notify_server+0x11c>
  401b10:	0f be 05 11 36 20 00 	movsbl 0x203611(%rip),%eax        # 605128 <target_prefix>
  401b17:	83 3d 6a 29 20 00 00 	cmpl   $0x0,0x20296a(%rip)        # 604488 <notify>
  401b1e:	0f 84 e9 00 00 00    	je     401c0d <notify_server+0x13c>
  401b24:	8b 15 d6 29 20 00    	mov    0x2029d6(%rip),%edx        # 604500 <authkey>
  401b2a:	85 db                	test   %ebx,%ebx
  401b2c:	0f 84 e5 00 00 00    	je     401c17 <notify_server+0x146>
  401b32:	48 8d 2d 48 17 00 00 	lea    0x1748(%rip),%rbp        # 403281 <_IO_stdin_used+0x3d1>
  401b39:	48 89 e7             	mov    %rsp,%rdi
  401b3c:	48 8d 0d dd 29 20 00 	lea    0x2029dd(%rip),%rcx        # 604520 <gets_buf>
  401b43:	51                   	push   %rcx
  401b44:	56                   	push   %rsi
  401b45:	50                   	push   %rax
  401b46:	52                   	push   %rdx
  401b47:	49 89 e9             	mov    %rbp,%r9
  401b4a:	4c 8b 05 df 25 20 00 	mov    0x2025df(%rip),%r8        # 604130 <target_id>
  401b51:	48 8d 0d 33 17 00 00 	lea    0x1733(%rip),%rcx        # 40328b <_IO_stdin_used+0x3db>
  401b58:	ba 00 20 00 00       	mov    $0x2000,%edx
  401b5d:	be 01 00 00 00       	mov    $0x1,%esi
  401b62:	b8 00 00 00 00       	mov    $0x0,%eax
  401b67:	e8 f4 f2 ff ff       	callq  400e60 <__sprintf_chk@plt>
  401b6c:	48 83 c4 20          	add    $0x20,%rsp
  401b70:	83 3d 11 29 20 00 00 	cmpl   $0x0,0x202911(%rip)        # 604488 <notify>
  401b77:	0f 84 df 00 00 00    	je     401c5c <notify_server+0x18b>
  401b7d:	85 db                	test   %ebx,%ebx
  401b7f:	0f 84 c6 00 00 00    	je     401c4b <notify_server+0x17a>
  401b85:	48 89 e1             	mov    %rsp,%rcx
  401b88:	4c 8d 8c 24 00 20 00 	lea    0x2000(%rsp),%r9
  401b8f:	00 
  401b90:	41 b8 00 00 00 00    	mov    $0x0,%r8d
  401b96:	48 8b 15 ab 25 20 00 	mov    0x2025ab(%rip),%rdx        # 604148 <lab>
  401b9d:	48 8b 35 ac 25 20 00 	mov    0x2025ac(%rip),%rsi        # 604150 <course>
  401ba4:	48 8b 3d 95 25 20 00 	mov    0x202595(%rip),%rdi        # 604140 <user_id>
  401bab:	e8 af 11 00 00       	callq  402d5f <driver_post>
  401bb0:	85 c0                	test   %eax,%eax
  401bb2:	78 6f                	js     401c23 <notify_server+0x152>
  401bb4:	48 8d 3d 15 18 00 00 	lea    0x1815(%rip),%rdi        # 4033d0 <_IO_stdin_used+0x520>
  401bbb:	e8 00 f1 ff ff       	callq  400cc0 <puts@plt>
  401bc0:	48 8d 3d ee 16 00 00 	lea    0x16ee(%rip),%rdi        # 4032b5 <_IO_stdin_used+0x405>
  401bc7:	e8 f4 f0 ff ff       	callq  400cc0 <puts@plt>
  401bcc:	48 8b 84 24 08 40 00 	mov    0x4008(%rsp),%rax
  401bd3:	00 
  401bd4:	64 48 33 04 25 28 00 	xor    %fs:0x28,%rax
  401bdb:	00 00 
  401bdd:	0f 85 07 01 00 00    	jne    401cea <notify_server+0x219>
  401be3:	48 81 c4 18 40 00 00 	add    $0x4018,%rsp
  401bea:	5b                   	pop    %rbx
  401beb:	5d                   	pop    %rbp
  401bec:	c3                   	retq   
  401bed:	48 8d 35 ac 17 00 00 	lea    0x17ac(%rip),%rsi        # 4033a0 <_IO_stdin_used+0x4f0>
  401bf4:	bf 01 00 00 00       	mov    $0x1,%edi
  401bf9:	b8 00 00 00 00       	mov    $0x0,%eax
  401bfe:	e8 dd f1 ff ff       	callq  400de0 <__printf_chk@plt>
  401c03:	bf 01 00 00 00       	mov    $0x1,%edi
  401c08:	e8 23 f2 ff ff       	callq  400e30 <exit@plt>
  401c0d:	ba ff ff ff ff       	mov    $0xffffffff,%edx
  401c12:	e9 13 ff ff ff       	jmpq   401b2a <notify_server+0x59>
  401c17:	48 8d 2d 68 16 00 00 	lea    0x1668(%rip),%rbp        # 403286 <_IO_stdin_used+0x3d6>
  401c1e:	e9 16 ff ff ff       	jmpq   401b39 <notify_server+0x68>
  401c23:	48 8d 94 24 00 20 00 	lea    0x2000(%rsp),%rdx
  401c2a:	00 
  401c2b:	48 8d 35 77 16 00 00 	lea    0x1677(%rip),%rsi        # 4032a9 <_IO_stdin_used+0x3f9>
  401c32:	bf 01 00 00 00       	mov    $0x1,%edi
  401c37:	b8 00 00 00 00       	mov    $0x0,%eax
  401c3c:	e8 9f f1 ff ff       	callq  400de0 <__printf_chk@plt>
  401c41:	bf 01 00 00 00       	mov    $0x1,%edi
  401c46:	e8 e5 f1 ff ff       	callq  400e30 <exit@plt>
  401c4b:	48 8d 3d 6d 16 00 00 	lea    0x166d(%rip),%rdi        # 4032bf <_IO_stdin_used+0x40f>
  401c52:	e8 69 f0 ff ff       	callq  400cc0 <puts@plt>
  401c57:	e9 70 ff ff ff       	jmpq   401bcc <notify_server+0xfb>
  401c5c:	48 89 ea             	mov    %rbp,%rdx
  401c5f:	48 8d 35 a2 17 00 00 	lea    0x17a2(%rip),%rsi        # 403408 <_IO_stdin_used+0x558>
  401c66:	bf 01 00 00 00       	mov    $0x1,%edi
  401c6b:	b8 00 00 00 00       	mov    $0x0,%eax
  401c70:	e8 6b f1 ff ff       	callq  400de0 <__printf_chk@plt>
  401c75:	48 8b 15 c4 24 20 00 	mov    0x2024c4(%rip),%rdx        # 604140 <user_id>
  401c7c:	48 8d 35 43 16 00 00 	lea    0x1643(%rip),%rsi        # 4032c6 <_IO_stdin_used+0x416>
  401c83:	bf 01 00 00 00       	mov    $0x1,%edi
  401c88:	b8 00 00 00 00       	mov    $0x0,%eax
  401c8d:	e8 4e f1 ff ff       	callq  400de0 <__printf_chk@plt>
  401c92:	48 8b 15 b7 24 20 00 	mov    0x2024b7(%rip),%rdx        # 604150 <course>
  401c99:	48 8d 35 33 16 00 00 	lea    0x1633(%rip),%rsi        # 4032d3 <_IO_stdin_used+0x423>
  401ca0:	bf 01 00 00 00       	mov    $0x1,%edi
  401ca5:	b8 00 00 00 00       	mov    $0x0,%eax
  401caa:	e8 31 f1 ff ff       	callq  400de0 <__printf_chk@plt>
  401caf:	48 8b 15 92 24 20 00 	mov    0x202492(%rip),%rdx        # 604148 <lab>
  401cb6:	48 8d 35 22 16 00 00 	lea    0x1622(%rip),%rsi        # 4032df <_IO_stdin_used+0x42f>
  401cbd:	bf 01 00 00 00       	mov    $0x1,%edi
  401cc2:	b8 00 00 00 00       	mov    $0x0,%eax
  401cc7:	e8 14 f1 ff ff       	callq  400de0 <__printf_chk@plt>
  401ccc:	48 89 e2             	mov    %rsp,%rdx
  401ccf:	48 8d 35 12 16 00 00 	lea    0x1612(%rip),%rsi        # 4032e8 <_IO_stdin_used+0x438>
  401cd6:	bf 01 00 00 00       	mov    $0x1,%edi
  401cdb:	b8 00 00 00 00       	mov    $0x0,%eax
  401ce0:	e8 fb f0 ff ff       	callq  400de0 <__printf_chk@plt>
  401ce5:	e9 e2 fe ff ff       	jmpq   401bcc <notify_server+0xfb>
  401cea:	e8 f1 ef ff ff       	callq  400ce0 <__stack_chk_fail@plt>

0000000000401cef <validate>:
  401cef:	53                   	push   %rbx
  401cf0:	89 fb                	mov    %edi,%ebx
  401cf2:	83 3d 0f 28 20 00 00 	cmpl   $0x0,0x20280f(%rip)        # 604508 <is_checker>
  401cf9:	74 72                	je     401d6d <validate+0x7e>
  401cfb:	39 3d fb 27 20 00    	cmp    %edi,0x2027fb(%rip)        # 6044fc <vlevel>
  401d01:	75 32                	jne    401d35 <validate+0x46>
  401d03:	8b 15 ef 27 20 00    	mov    0x2027ef(%rip),%edx        # 6044f8 <check_level>
  401d09:	39 fa                	cmp    %edi,%edx
  401d0b:	75 3e                	jne    401d4b <validate+0x5c>
  401d0d:	0f be 15 14 34 20 00 	movsbl 0x203414(%rip),%edx        # 605128 <target_prefix>
  401d14:	4c 8d 05 05 28 20 00 	lea    0x202805(%rip),%r8        # 604520 <gets_buf>
  401d1b:	89 f9                	mov    %edi,%ecx
  401d1d:	48 8d 35 ee 15 00 00 	lea    0x15ee(%rip),%rsi        # 403312 <_IO_stdin_used+0x462>
  401d24:	bf 01 00 00 00       	mov    $0x1,%edi
  401d29:	b8 00 00 00 00       	mov    $0x0,%eax
  401d2e:	e8 ad f0 ff ff       	callq  400de0 <__printf_chk@plt>
  401d33:	5b                   	pop    %rbx
  401d34:	c3                   	retq   
  401d35:	48 8d 3d b8 15 00 00 	lea    0x15b8(%rip),%rdi        # 4032f4 <_IO_stdin_used+0x444>
  401d3c:	e8 7f ef ff ff       	callq  400cc0 <puts@plt>
  401d41:	b8 00 00 00 00       	mov    $0x0,%eax
  401d46:	e8 fc fc ff ff       	callq  401a47 <check_fail>
  401d4b:	89 f9                	mov    %edi,%ecx
  401d4d:	48 8d 35 dc 16 00 00 	lea    0x16dc(%rip),%rsi        # 403430 <_IO_stdin_used+0x580>
  401d54:	bf 01 00 00 00       	mov    $0x1,%edi
  401d59:	b8 00 00 00 00       	mov    $0x0,%eax
  401d5e:	e8 7d f0 ff ff       	callq  400de0 <__printf_chk@plt>
  401d63:	b8 00 00 00 00       	mov    $0x0,%eax
  401d68:	e8 da fc ff ff       	callq  401a47 <check_fail>
  401d6d:	39 3d 89 27 20 00    	cmp    %edi,0x202789(%rip)        # 6044fc <vlevel>
  401d73:	74 1a                	je     401d8f <validate+0xa0>
  401d75:	48 8d 3d 78 15 00 00 	lea    0x1578(%rip),%rdi        # 4032f4 <_IO_stdin_used+0x444>
  401d7c:	e8 3f ef ff ff       	callq  400cc0 <puts@plt>
  401d81:	89 de                	mov    %ebx,%esi
  401d83:	bf 00 00 00 00       	mov    $0x0,%edi
  401d88:	e8 44 fd ff ff       	callq  401ad1 <notify_server>
  401d8d:	eb a4                	jmp    401d33 <validate+0x44>
  401d8f:	0f be 0d 92 33 20 00 	movsbl 0x203392(%rip),%ecx        # 605128 <target_prefix>
  401d96:	89 fa                	mov    %edi,%edx
  401d98:	48 8d 35 b9 16 00 00 	lea    0x16b9(%rip),%rsi        # 403458 <_IO_stdin_used+0x5a8>
  401d9f:	bf 01 00 00 00       	mov    $0x1,%edi
  401da4:	b8 00 00 00 00       	mov    $0x0,%eax
  401da9:	e8 32 f0 ff ff       	callq  400de0 <__printf_chk@plt>
  401dae:	89 de                	mov    %ebx,%esi
  401db0:	bf 01 00 00 00       	mov    $0x1,%edi
  401db5:	e8 17 fd ff ff       	callq  401ad1 <notify_server>
  401dba:	e9 74 ff ff ff       	jmpq   401d33 <validate+0x44>

0000000000401dbf <fail>:
  401dbf:	48 83 ec 08          	sub    $0x8,%rsp
  401dc3:	83 3d 3e 27 20 00 00 	cmpl   $0x0,0x20273e(%rip)        # 604508 <is_checker>
  401dca:	75 11                	jne    401ddd <fail+0x1e>
  401dcc:	89 fe                	mov    %edi,%esi
  401dce:	bf 00 00 00 00       	mov    $0x0,%edi
  401dd3:	e8 f9 fc ff ff       	callq  401ad1 <notify_server>
  401dd8:	48 83 c4 08          	add    $0x8,%rsp
  401ddc:	c3                   	retq   
  401ddd:	b8 00 00 00 00       	mov    $0x0,%eax
  401de2:	e8 60 fc ff ff       	callq  401a47 <check_fail>

0000000000401de7 <bushandler>:
  401de7:	48 83 ec 08          	sub    $0x8,%rsp
  401deb:	83 3d 16 27 20 00 00 	cmpl   $0x0,0x202716(%rip)        # 604508 <is_checker>
  401df2:	74 16                	je     401e0a <bushandler+0x23>
  401df4:	48 8d 3d 2c 15 00 00 	lea    0x152c(%rip),%rdi        # 403327 <_IO_stdin_used+0x477>
  401dfb:	e8 c0 ee ff ff       	callq  400cc0 <puts@plt>
  401e00:	b8 00 00 00 00       	mov    $0x0,%eax
  401e05:	e8 3d fc ff ff       	callq  401a47 <check_fail>
  401e0a:	48 8d 3d 7f 16 00 00 	lea    0x167f(%rip),%rdi        # 403490 <_IO_stdin_used+0x5e0>
  401e11:	e8 aa ee ff ff       	callq  400cc0 <puts@plt>
  401e16:	48 8d 3d 14 15 00 00 	lea    0x1514(%rip),%rdi        # 403331 <_IO_stdin_used+0x481>
  401e1d:	e8 9e ee ff ff       	callq  400cc0 <puts@plt>
  401e22:	be 00 00 00 00       	mov    $0x0,%esi
  401e27:	bf 00 00 00 00       	mov    $0x0,%edi
  401e2c:	e8 a0 fc ff ff       	callq  401ad1 <notify_server>
  401e31:	bf 01 00 00 00       	mov    $0x1,%edi
  401e36:	e8 f5 ef ff ff       	callq  400e30 <exit@plt>

0000000000401e3b <seghandler>:
  401e3b:	48 83 ec 08          	sub    $0x8,%rsp
  401e3f:	83 3d c2 26 20 00 00 	cmpl   $0x0,0x2026c2(%rip)        # 604508 <is_checker>
  401e46:	74 16                	je     401e5e <seghandler+0x23>
  401e48:	48 8d 3d f8 14 00 00 	lea    0x14f8(%rip),%rdi        # 403347 <_IO_stdin_used+0x497>
  401e4f:	e8 6c ee ff ff       	callq  400cc0 <puts@plt>
  401e54:	b8 00 00 00 00       	mov    $0x0,%eax
  401e59:	e8 e9 fb ff ff       	callq  401a47 <check_fail>
  401e5e:	48 8d 3d 4b 16 00 00 	lea    0x164b(%rip),%rdi        # 4034b0 <_IO_stdin_used+0x600>
  401e65:	e8 56 ee ff ff       	callq  400cc0 <puts@plt>
  401e6a:	48 8d 3d c0 14 00 00 	lea    0x14c0(%rip),%rdi        # 403331 <_IO_stdin_used+0x481>
  401e71:	e8 4a ee ff ff       	callq  400cc0 <puts@plt>
  401e76:	be 00 00 00 00       	mov    $0x0,%esi
  401e7b:	bf 00 00 00 00       	mov    $0x0,%edi
  401e80:	e8 4c fc ff ff       	callq  401ad1 <notify_server>
  401e85:	bf 01 00 00 00       	mov    $0x1,%edi
  401e8a:	e8 a1 ef ff ff       	callq  400e30 <exit@plt>

0000000000401e8f <illegalhandler>:
  401e8f:	48 83 ec 08          	sub    $0x8,%rsp
  401e93:	83 3d 6e 26 20 00 00 	cmpl   $0x0,0x20266e(%rip)        # 604508 <is_checker>
  401e9a:	74 16                	je     401eb2 <illegalhandler+0x23>
  401e9c:	48 8d 3d b7 14 00 00 	lea    0x14b7(%rip),%rdi        # 40335a <_IO_stdin_used+0x4aa>
  401ea3:	e8 18 ee ff ff       	callq  400cc0 <puts@plt>
  401ea8:	b8 00 00 00 00       	mov    $0x0,%eax
  401ead:	e8 95 fb ff ff       	callq  401a47 <check_fail>
  401eb2:	48 8d 3d 1f 16 00 00 	lea    0x161f(%rip),%rdi        # 4034d8 <_IO_stdin_used+0x628>
  401eb9:	e8 02 ee ff ff       	callq  400cc0 <puts@plt>
  401ebe:	48 8d 3d 6c 14 00 00 	lea    0x146c(%rip),%rdi        # 403331 <_IO_stdin_used+0x481>
  401ec5:	e8 f6 ed ff ff       	callq  400cc0 <puts@plt>
  401eca:	be 00 00 00 00       	mov    $0x0,%esi
  401ecf:	bf 00 00 00 00       	mov    $0x0,%edi
  401ed4:	e8 f8 fb ff ff       	callq  401ad1 <notify_server>
  401ed9:	bf 01 00 00 00       	mov    $0x1,%edi
  401ede:	e8 4d ef ff ff       	callq  400e30 <exit@plt>

0000000000401ee3 <sigalrmhandler>:
  401ee3:	48 83 ec 08          	sub    $0x8,%rsp
  401ee7:	83 3d 1a 26 20 00 00 	cmpl   $0x0,0x20261a(%rip)        # 604508 <is_checker>
  401eee:	74 16                	je     401f06 <sigalrmhandler+0x23>
  401ef0:	48 8d 3d 77 14 00 00 	lea    0x1477(%rip),%rdi        # 40336e <_IO_stdin_used+0x4be>
  401ef7:	e8 c4 ed ff ff       	callq  400cc0 <puts@plt>
  401efc:	b8 00 00 00 00       	mov    $0x0,%eax
  401f01:	e8 41 fb ff ff       	callq  401a47 <check_fail>
  401f06:	ba 05 00 00 00       	mov    $0x5,%edx
  401f0b:	48 8d 35 f6 15 00 00 	lea    0x15f6(%rip),%rsi        # 403508 <_IO_stdin_used+0x658>
  401f12:	bf 01 00 00 00       	mov    $0x1,%edi
  401f17:	b8 00 00 00 00       	mov    $0x0,%eax
  401f1c:	e8 bf ee ff ff       	callq  400de0 <__printf_chk@plt>
  401f21:	be 00 00 00 00       	mov    $0x0,%esi
  401f26:	bf 00 00 00 00       	mov    $0x0,%edi
  401f2b:	e8 a1 fb ff ff       	callq  401ad1 <notify_server>
  401f30:	bf 01 00 00 00       	mov    $0x1,%edi
  401f35:	e8 f6 ee ff ff       	callq  400e30 <exit@plt>

0000000000401f3a <launch>:
  401f3a:	55                   	push   %rbp
  401f3b:	48 89 e5             	mov    %rsp,%rbp
  401f3e:	48 83 ec 10          	sub    $0x10,%rsp
  401f42:	48 89 fa             	mov    %rdi,%rdx
  401f45:	64 48 8b 04 25 28 00 	mov    %fs:0x28,%rax
  401f4c:	00 00 
  401f4e:	48 89 45 f8          	mov    %rax,-0x8(%rbp)
  401f52:	31 c0                	xor    %eax,%eax
  401f54:	48 8d 47 1e          	lea    0x1e(%rdi),%rax
  401f58:	48 83 e0 f0          	and    $0xfffffffffffffff0,%rax
  401f5c:	48 29 c4             	sub    %rax,%rsp
  401f5f:	48 8d 7c 24 0f       	lea    0xf(%rsp),%rdi
  401f64:	48 83 e7 f0          	and    $0xfffffffffffffff0,%rdi
  401f68:	be f4 00 00 00       	mov    $0xf4,%esi
  401f6d:	e8 8e ed ff ff       	callq  400d00 <memset@plt>
  401f72:	48 8b 05 27 25 20 00 	mov    0x202527(%rip),%rax        # 6044a0 <stdin@@GLIBC_2.2.5>
  401f79:	48 39 05 70 25 20 00 	cmp    %rax,0x202570(%rip)        # 6044f0 <infile>
  401f80:	74 3a                	je     401fbc <launch+0x82>
  401f82:	c7 05 70 25 20 00 00 	movl   $0x0,0x202570(%rip)        # 6044fc <vlevel>
  401f89:	00 00 00 
  401f8c:	b8 00 00 00 00       	mov    $0x0,%eax
  401f91:	e8 16 fa ff ff       	callq  4019ac <test>
  401f96:	83 3d 6b 25 20 00 00 	cmpl   $0x0,0x20256b(%rip)        # 604508 <is_checker>
  401f9d:	75 35                	jne    401fd4 <launch+0x9a>
  401f9f:	48 8d 3d e8 13 00 00 	lea    0x13e8(%rip),%rdi        # 40338e <_IO_stdin_used+0x4de>
  401fa6:	e8 15 ed ff ff       	callq  400cc0 <puts@plt>
  401fab:	48 8b 45 f8          	mov    -0x8(%rbp),%rax
  401faf:	64 48 33 04 25 28 00 	xor    %fs:0x28,%rax
  401fb6:	00 00 
  401fb8:	75 30                	jne    401fea <launch+0xb0>
  401fba:	c9                   	leaveq 
  401fbb:	c3                   	retq   
  401fbc:	48 8d 35 b3 13 00 00 	lea    0x13b3(%rip),%rsi        # 403376 <_IO_stdin_used+0x4c6>
  401fc3:	bf 01 00 00 00       	mov    $0x1,%edi
  401fc8:	b8 00 00 00 00       	mov    $0x0,%eax
  401fcd:	e8 0e ee ff ff       	callq  400de0 <__printf_chk@plt>
  401fd2:	eb ae                	jmp    401f82 <launch+0x48>
  401fd4:	48 8d 3d a8 13 00 00 	lea    0x13a8(%rip),%rdi        # 403383 <_IO_stdin_used+0x4d3>
  401fdb:	e8 e0 ec ff ff       	callq  400cc0 <puts@plt>
  401fe0:	b8 00 00 00 00       	mov    $0x0,%eax
  401fe5:	e8 5d fa ff ff       	callq  401a47 <check_fail>
  401fea:	e8 f1 ec ff ff       	callq  400ce0 <__stack_chk_fail@plt>

0000000000401fef <stable_launch>:
  401fef:	53                   	push   %rbx
  401ff0:	48 89 3d f1 24 20 00 	mov    %rdi,0x2024f1(%rip)        # 6044e8 <global_offset>
  401ff7:	41 b9 00 00 00 00    	mov    $0x0,%r9d
  401ffd:	41 b8 00 00 00 00    	mov    $0x0,%r8d
  402003:	b9 32 01 00 00       	mov    $0x132,%ecx
  402008:	ba 07 00 00 00       	mov    $0x7,%edx
  40200d:	be 00 00 10 00       	mov    $0x100000,%esi
  402012:	bf 00 60 58 55       	mov    $0x55586000,%edi
  402017:	e8 d4 ec ff ff       	callq  400cf0 <mmap@plt>
  40201c:	48 89 c3             	mov    %rax,%rbx
  40201f:	48 3d 00 60 58 55    	cmp    $0x55586000,%rax
  402025:	75 43                	jne    40206a <stable_launch+0x7b>
  402027:	48 8d 90 f8 ff 0f 00 	lea    0xffff8(%rax),%rdx
  40202e:	48 89 15 fb 30 20 00 	mov    %rdx,0x2030fb(%rip)        # 605130 <stack_top>
  402035:	48 89 e0             	mov    %rsp,%rax
  402038:	48 89 d4             	mov    %rdx,%rsp
  40203b:	48 89 c2             	mov    %rax,%rdx
  40203e:	48 89 15 9b 24 20 00 	mov    %rdx,0x20249b(%rip)        # 6044e0 <global_save_stack>
  402045:	48 8b 3d 9c 24 20 00 	mov    0x20249c(%rip),%rdi        # 6044e8 <global_offset>
  40204c:	e8 e9 fe ff ff       	callq  401f3a <launch>
  402051:	48 8b 05 88 24 20 00 	mov    0x202488(%rip),%rax        # 6044e0 <global_save_stack>
  402058:	48 89 c4             	mov    %rax,%rsp
  40205b:	be 00 00 10 00       	mov    $0x100000,%esi
  402060:	48 89 df             	mov    %rbx,%rdi
  402063:	e8 68 ed ff ff       	callq  400dd0 <munmap@plt>
  402068:	5b                   	pop    %rbx
  402069:	c3                   	retq   
  40206a:	be 00 00 10 00       	mov    $0x100000,%esi
  40206f:	48 89 c7             	mov    %rax,%rdi
  402072:	e8 59 ed ff ff       	callq  400dd0 <munmap@plt>
  402077:	b9 00 60 58 55       	mov    $0x55586000,%ecx
  40207c:	48 8d 15 bd 14 00 00 	lea    0x14bd(%rip),%rdx        # 403540 <_IO_stdin_used+0x690>
  402083:	be 01 00 00 00       	mov    $0x1,%esi
  402088:	48 8b 3d 31 24 20 00 	mov    0x202431(%rip),%rdi        # 6044c0 <stderr@@GLIBC_2.2.5>
  40208f:	b8 00 00 00 00       	mov    $0x0,%eax
  402094:	e8 b7 ed ff ff       	callq  400e50 <__fprintf_chk@plt>
  402099:	bf 01 00 00 00       	mov    $0x1,%edi
  40209e:	e8 8d ed ff ff       	callq  400e30 <exit@plt>

00000000004020a3 <rio_readinitb>:
  4020a3:	89 37                	mov    %esi,(%rdi)
  4020a5:	c7 47 04 00 00 00 00 	movl   $0x0,0x4(%rdi)
  4020ac:	48 8d 47 10          	lea    0x10(%rdi),%rax
  4020b0:	48 89 47 08          	mov    %rax,0x8(%rdi)
  4020b4:	c3                   	retq   

00000000004020b5 <sigalrm_handler>:
  4020b5:	48 83 ec 08          	sub    $0x8,%rsp
  4020b9:	b9 00 00 00 00       	mov    $0x0,%ecx
  4020be:	48 8d 15 bb 14 00 00 	lea    0x14bb(%rip),%rdx        # 403580 <trans_char+0x10>
  4020c5:	be 01 00 00 00       	mov    $0x1,%esi
  4020ca:	48 8b 3d ef 23 20 00 	mov    0x2023ef(%rip),%rdi        # 6044c0 <stderr@@GLIBC_2.2.5>
  4020d1:	b8 00 00 00 00       	mov    $0x0,%eax
  4020d6:	e8 75 ed ff ff       	callq  400e50 <__fprintf_chk@plt>
  4020db:	bf 01 00 00 00       	mov    $0x1,%edi
  4020e0:	e8 4b ed ff ff       	callq  400e30 <exit@plt>

00000000004020e5 <rio_writen>:
  4020e5:	41 55                	push   %r13
  4020e7:	41 54                	push   %r12
  4020e9:	55                   	push   %rbp
  4020ea:	53                   	push   %rbx
  4020eb:	48 83 ec 08          	sub    $0x8,%rsp
  4020ef:	41 89 fc             	mov    %edi,%r12d
  4020f2:	48 89 f5             	mov    %rsi,%rbp
  4020f5:	49 89 d5             	mov    %rdx,%r13
  4020f8:	48 89 d3             	mov    %rdx,%rbx
  4020fb:	eb 06                	jmp    402103 <rio_writen+0x1e>
  4020fd:	48 29 c3             	sub    %rax,%rbx
  402100:	48 01 c5             	add    %rax,%rbp
  402103:	48 85 db             	test   %rbx,%rbx
  402106:	74 24                	je     40212c <rio_writen+0x47>
  402108:	48 89 da             	mov    %rbx,%rdx
  40210b:	48 89 ee             	mov    %rbp,%rsi
  40210e:	44 89 e7             	mov    %r12d,%edi
  402111:	e8 ba eb ff ff       	callq  400cd0 <write@plt>
  402116:	48 85 c0             	test   %rax,%rax
  402119:	7f e2                	jg     4020fd <rio_writen+0x18>
  40211b:	e8 60 eb ff ff       	callq  400c80 <__errno_location@plt>
  402120:	83 38 04             	cmpl   $0x4,(%rax)
  402123:	75 15                	jne    40213a <rio_writen+0x55>
  402125:	b8 00 00 00 00       	mov    $0x0,%eax
  40212a:	eb d1                	jmp    4020fd <rio_writen+0x18>
  40212c:	4c 89 e8             	mov    %r13,%rax
  40212f:	48 83 c4 08          	add    $0x8,%rsp
  402133:	5b                   	pop    %rbx
  402134:	5d                   	pop    %rbp
  402135:	41 5c                	pop    %r12
  402137:	41 5d                	pop    %r13
  402139:	c3                   	retq   
  40213a:	48 c7 c0 ff ff ff ff 	mov    $0xffffffffffffffff,%rax
  402141:	eb ec                	jmp    40212f <rio_writen+0x4a>

0000000000402143 <rio_read>:
  402143:	41 55                	push   %r13
  402145:	41 54                	push   %r12
  402147:	55                   	push   %rbp
  402148:	53                   	push   %rbx
  402149:	48 83 ec 08          	sub    $0x8,%rsp
  40214d:	48 89 fb             	mov    %rdi,%rbx
  402150:	49 89 f5             	mov    %rsi,%r13
  402153:	49 89 d4             	mov    %rdx,%r12
  402156:	eb 0a                	jmp    402162 <rio_read+0x1f>
  402158:	e8 23 eb ff ff       	callq  400c80 <__errno_location@plt>
  40215d:	83 38 04             	cmpl   $0x4,(%rax)
  402160:	75 5c                	jne    4021be <rio_read+0x7b>
  402162:	8b 6b 04             	mov    0x4(%rbx),%ebp
  402165:	85 ed                	test   %ebp,%ebp
  402167:	7f 24                	jg     40218d <rio_read+0x4a>
  402169:	48 8d 6b 10          	lea    0x10(%rbx),%rbp
  40216d:	8b 3b                	mov    (%rbx),%edi
  40216f:	ba 00 20 00 00       	mov    $0x2000,%edx
  402174:	48 89 ee             	mov    %rbp,%rsi
  402177:	e8 b4 eb ff ff       	callq  400d30 <read@plt>
  40217c:	89 43 04             	mov    %eax,0x4(%rbx)
  40217f:	85 c0                	test   %eax,%eax
  402181:	78 d5                	js     402158 <rio_read+0x15>
  402183:	85 c0                	test   %eax,%eax
  402185:	74 40                	je     4021c7 <rio_read+0x84>
  402187:	48 89 6b 08          	mov    %rbp,0x8(%rbx)
  40218b:	eb d5                	jmp    402162 <rio_read+0x1f>
  40218d:	89 e8                	mov    %ebp,%eax
  40218f:	4c 39 e0             	cmp    %r12,%rax
  402192:	72 03                	jb     402197 <rio_read+0x54>
  402194:	44 89 e5             	mov    %r12d,%ebp
  402197:	4c 63 e5             	movslq %ebp,%r12
  40219a:	48 8b 73 08          	mov    0x8(%rbx),%rsi
  40219e:	4c 89 e2             	mov    %r12,%rdx
  4021a1:	4c 89 ef             	mov    %r13,%rdi
  4021a4:	e8 d7 eb ff ff       	callq  400d80 <memcpy@plt>
  4021a9:	4c 01 63 08          	add    %r12,0x8(%rbx)
  4021ad:	29 6b 04             	sub    %ebp,0x4(%rbx)
  4021b0:	4c 89 e0             	mov    %r12,%rax
  4021b3:	48 83 c4 08          	add    $0x8,%rsp
  4021b7:	5b                   	pop    %rbx
  4021b8:	5d                   	pop    %rbp
  4021b9:	41 5c                	pop    %r12
  4021bb:	41 5d                	pop    %r13
  4021bd:	c3                   	retq   
  4021be:	48 c7 c0 ff ff ff ff 	mov    $0xffffffffffffffff,%rax
  4021c5:	eb ec                	jmp    4021b3 <rio_read+0x70>
  4021c7:	b8 00 00 00 00       	mov    $0x0,%eax
  4021cc:	eb e5                	jmp    4021b3 <rio_read+0x70>

00000000004021ce <rio_readlineb>:
  4021ce:	41 55                	push   %r13
  4021d0:	41 54                	push   %r12
  4021d2:	55                   	push   %rbp
  4021d3:	53                   	push   %rbx
  4021d4:	48 83 ec 18          	sub    $0x18,%rsp
  4021d8:	49 89 fd             	mov    %rdi,%r13
  4021db:	48 89 f5             	mov    %rsi,%rbp
  4021de:	49 89 d4             	mov    %rdx,%r12
  4021e1:	64 48 8b 04 25 28 00 	mov    %fs:0x28,%rax
  4021e8:	00 00 
  4021ea:	48 89 44 24 08       	mov    %rax,0x8(%rsp)
  4021ef:	31 c0                	xor    %eax,%eax
  4021f1:	bb 01 00 00 00       	mov    $0x1,%ebx
  4021f6:	4c 39 e3             	cmp    %r12,%rbx
  4021f9:	73 47                	jae    402242 <rio_readlineb+0x74>
  4021fb:	48 8d 74 24 07       	lea    0x7(%rsp),%rsi
  402200:	ba 01 00 00 00       	mov    $0x1,%edx
  402205:	4c 89 ef             	mov    %r13,%rdi
  402208:	e8 36 ff ff ff       	callq  402143 <rio_read>
  40220d:	83 f8 01             	cmp    $0x1,%eax
  402210:	75 1c                	jne    40222e <rio_readlineb+0x60>
  402212:	48 8d 45 01          	lea    0x1(%rbp),%rax
  402216:	0f b6 54 24 07       	movzbl 0x7(%rsp),%edx
  40221b:	88 55 00             	mov    %dl,0x0(%rbp)
  40221e:	80 7c 24 07 0a       	cmpb   $0xa,0x7(%rsp)
  402223:	74 1a                	je     40223f <rio_readlineb+0x71>
  402225:	48 83 c3 01          	add    $0x1,%rbx
  402229:	48 89 c5             	mov    %rax,%rbp
  40222c:	eb c8                	jmp    4021f6 <rio_readlineb+0x28>
  40222e:	85 c0                	test   %eax,%eax
  402230:	75 32                	jne    402264 <rio_readlineb+0x96>
  402232:	48 83 fb 01          	cmp    $0x1,%rbx
  402236:	75 0a                	jne    402242 <rio_readlineb+0x74>
  402238:	b8 00 00 00 00       	mov    $0x0,%eax
  40223d:	eb 0a                	jmp    402249 <rio_readlineb+0x7b>
  40223f:	48 89 c5             	mov    %rax,%rbp
  402242:	c6 45 00 00          	movb   $0x0,0x0(%rbp)
  402246:	48 89 d8             	mov    %rbx,%rax
  402249:	48 8b 4c 24 08       	mov    0x8(%rsp),%rcx
  40224e:	64 48 33 0c 25 28 00 	xor    %fs:0x28,%rcx
  402255:	00 00 
  402257:	75 14                	jne    40226d <rio_readlineb+0x9f>
  402259:	48 83 c4 18          	add    $0x18,%rsp
  40225d:	5b                   	pop    %rbx
  40225e:	5d                   	pop    %rbp
  40225f:	41 5c                	pop    %r12
  402261:	41 5d                	pop    %r13
  402263:	c3                   	retq   
  402264:	48 c7 c0 ff ff ff ff 	mov    $0xffffffffffffffff,%rax
  40226b:	eb dc                	jmp    402249 <rio_readlineb+0x7b>
  40226d:	e8 6e ea ff ff       	callq  400ce0 <__stack_chk_fail@plt>

0000000000402272 <urlencode>:
  402272:	41 54                	push   %r12
  402274:	55                   	push   %rbp
  402275:	53                   	push   %rbx
  402276:	48 83 ec 10          	sub    $0x10,%rsp
  40227a:	48 89 fb             	mov    %rdi,%rbx
  40227d:	48 89 f5             	mov    %rsi,%rbp
  402280:	64 48 8b 04 25 28 00 	mov    %fs:0x28,%rax
  402287:	00 00 
  402289:	48 89 44 24 08       	mov    %rax,0x8(%rsp)
  40228e:	31 c0                	xor    %eax,%eax
  402290:	48 c7 c1 ff ff ff ff 	mov    $0xffffffffffffffff,%rcx
  402297:	f2 ae                	repnz scas %es:(%rdi),%al
  402299:	48 89 ce             	mov    %rcx,%rsi
  40229c:	48 f7 d6             	not    %rsi
  40229f:	8d 46 ff             	lea    -0x1(%rsi),%eax
  4022a2:	eb 0f                	jmp    4022b3 <urlencode+0x41>
  4022a4:	44 88 45 00          	mov    %r8b,0x0(%rbp)
  4022a8:	48 8d 6d 01          	lea    0x1(%rbp),%rbp
  4022ac:	48 83 c3 01          	add    $0x1,%rbx
  4022b0:	44 89 e0             	mov    %r12d,%eax
  4022b3:	44 8d 60 ff          	lea    -0x1(%rax),%r12d
  4022b7:	85 c0                	test   %eax,%eax
  4022b9:	0f 84 a8 00 00 00    	je     402367 <urlencode+0xf5>
  4022bf:	44 0f b6 03          	movzbl (%rbx),%r8d
  4022c3:	41 80 f8 2a          	cmp    $0x2a,%r8b
  4022c7:	0f 94 c2             	sete   %dl
  4022ca:	41 80 f8 2d          	cmp    $0x2d,%r8b
  4022ce:	0f 94 c0             	sete   %al
  4022d1:	08 c2                	or     %al,%dl
  4022d3:	75 cf                	jne    4022a4 <urlencode+0x32>
  4022d5:	41 80 f8 2e          	cmp    $0x2e,%r8b
  4022d9:	74 c9                	je     4022a4 <urlencode+0x32>
  4022db:	41 80 f8 5f          	cmp    $0x5f,%r8b
  4022df:	74 c3                	je     4022a4 <urlencode+0x32>
  4022e1:	41 8d 40 d0          	lea    -0x30(%r8),%eax
  4022e5:	3c 09                	cmp    $0x9,%al
  4022e7:	76 bb                	jbe    4022a4 <urlencode+0x32>
  4022e9:	41 8d 40 bf          	lea    -0x41(%r8),%eax
  4022ed:	3c 19                	cmp    $0x19,%al
  4022ef:	76 b3                	jbe    4022a4 <urlencode+0x32>
  4022f1:	41 8d 40 9f          	lea    -0x61(%r8),%eax
  4022f5:	3c 19                	cmp    $0x19,%al
  4022f7:	76 ab                	jbe    4022a4 <urlencode+0x32>
  4022f9:	41 80 f8 20          	cmp    $0x20,%r8b
  4022fd:	74 56                	je     402355 <urlencode+0xe3>
  4022ff:	41 8d 40 e0          	lea    -0x20(%r8),%eax
  402303:	3c 5f                	cmp    $0x5f,%al
  402305:	0f 96 c2             	setbe  %dl
  402308:	41 80 f8 09          	cmp    $0x9,%r8b
  40230c:	0f 94 c0             	sete   %al
  40230f:	08 c2                	or     %al,%dl
  402311:	74 4f                	je     402362 <urlencode+0xf0>
  402313:	48 89 e7             	mov    %rsp,%rdi
  402316:	45 0f b6 c0          	movzbl %r8b,%r8d
  40231a:	48 8d 0d f7 12 00 00 	lea    0x12f7(%rip),%rcx        # 403618 <trans_char+0xa8>
  402321:	ba 08 00 00 00       	mov    $0x8,%edx
  402326:	be 01 00 00 00       	mov    $0x1,%esi
  40232b:	b8 00 00 00 00       	mov    $0x0,%eax
  402330:	e8 2b eb ff ff       	callq  400e60 <__sprintf_chk@plt>
  402335:	0f b6 04 24          	movzbl (%rsp),%eax
  402339:	88 45 00             	mov    %al,0x0(%rbp)
  40233c:	0f b6 44 24 01       	movzbl 0x1(%rsp),%eax
  402341:	88 45 01             	mov    %al,0x1(%rbp)
  402344:	0f b6 44 24 02       	movzbl 0x2(%rsp),%eax
  402349:	88 45 02             	mov    %al,0x2(%rbp)
  40234c:	48 8d 6d 03          	lea    0x3(%rbp),%rbp
  402350:	e9 57 ff ff ff       	jmpq   4022ac <urlencode+0x3a>
  402355:	c6 45 00 2b          	movb   $0x2b,0x0(%rbp)
  402359:	48 8d 6d 01          	lea    0x1(%rbp),%rbp
  40235d:	e9 4a ff ff ff       	jmpq   4022ac <urlencode+0x3a>
  402362:	b8 ff ff ff ff       	mov    $0xffffffff,%eax
  402367:	48 8b 74 24 08       	mov    0x8(%rsp),%rsi
  40236c:	64 48 33 34 25 28 00 	xor    %fs:0x28,%rsi
  402373:	00 00 
  402375:	75 09                	jne    402380 <urlencode+0x10e>
  402377:	48 83 c4 10          	add    $0x10,%rsp
  40237b:	5b                   	pop    %rbx
  40237c:	5d                   	pop    %rbp
  40237d:	41 5c                	pop    %r12
  40237f:	c3                   	retq   
  402380:	e8 5b e9 ff ff       	callq  400ce0 <__stack_chk_fail@plt>

0000000000402385 <submitr>:
  402385:	41 57                	push   %r15
  402387:	41 56                	push   %r14
  402389:	41 55                	push   %r13
  40238b:	41 54                	push   %r12
  40238d:	55                   	push   %rbp
  40238e:	53                   	push   %rbx
  40238f:	48 81 ec 68 a0 00 00 	sub    $0xa068,%rsp
  402396:	49 89 fd             	mov    %rdi,%r13
  402399:	89 74 24 14          	mov    %esi,0x14(%rsp)
  40239d:	49 89 d7             	mov    %rdx,%r15
  4023a0:	48 89 4c 24 08       	mov    %rcx,0x8(%rsp)
  4023a5:	4c 89 44 24 18       	mov    %r8,0x18(%rsp)
  4023aa:	4d 89 ce             	mov    %r9,%r14
  4023ad:	48 8b ac 24 a0 a0 00 	mov    0xa0a0(%rsp),%rbp
  4023b4:	00 
  4023b5:	64 48 8b 04 25 28 00 	mov    %fs:0x28,%rax
  4023bc:	00 00 
  4023be:	48 89 84 24 58 a0 00 	mov    %rax,0xa058(%rsp)
  4023c5:	00 
  4023c6:	31 c0                	xor    %eax,%eax
  4023c8:	c7 44 24 2c 00 00 00 	movl   $0x0,0x2c(%rsp)
  4023cf:	00 
  4023d0:	ba 00 00 00 00       	mov    $0x0,%edx
  4023d5:	be 01 00 00 00       	mov    $0x1,%esi
  4023da:	bf 02 00 00 00       	mov    $0x2,%edi
  4023df:	e8 8c ea ff ff       	callq  400e70 <socket@plt>
  4023e4:	85 c0                	test   %eax,%eax
  4023e6:	0f 88 a9 02 00 00    	js     402695 <submitr+0x310>
  4023ec:	89 c3                	mov    %eax,%ebx
  4023ee:	4c 89 ef             	mov    %r13,%rdi
  4023f1:	e8 5a e9 ff ff       	callq  400d50 <gethostbyname@plt>
  4023f6:	48 85 c0             	test   %rax,%rax
  4023f9:	0f 84 e2 02 00 00    	je     4026e1 <submitr+0x35c>
  4023ff:	4c 8d 64 24 30       	lea    0x30(%rsp),%r12
  402404:	48 c7 44 24 32 00 00 	movq   $0x0,0x32(%rsp)
  40240b:	00 00 
  40240d:	c7 44 24 3a 00 00 00 	movl   $0x0,0x3a(%rsp)
  402414:	00 
  402415:	66 c7 44 24 3e 00 00 	movw   $0x0,0x3e(%rsp)
  40241c:	66 c7 44 24 30 02 00 	movw   $0x2,0x30(%rsp)
  402423:	48 63 50 14          	movslq 0x14(%rax),%rdx
  402427:	48 8b 40 18          	mov    0x18(%rax),%rax
  40242b:	48 8b 30             	mov    (%rax),%rsi
  40242e:	48 8d 7c 24 34       	lea    0x34(%rsp),%rdi
  402433:	b9 0c 00 00 00       	mov    $0xc,%ecx
  402438:	e8 23 e9 ff ff       	callq  400d60 <__memmove_chk@plt>
  40243d:	0f b7 44 24 14       	movzwl 0x14(%rsp),%eax
  402442:	66 c1 c8 08          	ror    $0x8,%ax
  402446:	66 89 44 24 32       	mov    %ax,0x32(%rsp)
  40244b:	ba 10 00 00 00       	mov    $0x10,%edx
  402450:	4c 89 e6             	mov    %r12,%rsi
  402453:	89 df                	mov    %ebx,%edi
  402455:	e8 e6 e9 ff ff       	callq  400e40 <connect@plt>
  40245a:	85 c0                	test   %eax,%eax
  40245c:	0f 88 e7 02 00 00    	js     402749 <submitr+0x3c4>
  402462:	48 c7 c6 ff ff ff ff 	mov    $0xffffffffffffffff,%rsi
  402469:	b8 00 00 00 00       	mov    $0x0,%eax
  40246e:	48 89 f1             	mov    %rsi,%rcx
  402471:	4c 89 f7             	mov    %r14,%rdi
  402474:	f2 ae                	repnz scas %es:(%rdi),%al
  402476:	48 89 ca             	mov    %rcx,%rdx
  402479:	48 f7 d2             	not    %rdx
  40247c:	48 89 f1             	mov    %rsi,%rcx
  40247f:	4c 89 ff             	mov    %r15,%rdi
  402482:	f2 ae                	repnz scas %es:(%rdi),%al
  402484:	48 f7 d1             	not    %rcx
  402487:	49 89 c8             	mov    %rcx,%r8
  40248a:	48 89 f1             	mov    %rsi,%rcx
  40248d:	48 8b 7c 24 08       	mov    0x8(%rsp),%rdi
  402492:	f2 ae                	repnz scas %es:(%rdi),%al
  402494:	48 f7 d1             	not    %rcx
  402497:	4d 8d 44 08 fe       	lea    -0x2(%r8,%rcx,1),%r8
  40249c:	48 89 f1             	mov    %rsi,%rcx
  40249f:	48 8b 7c 24 18       	mov    0x18(%rsp),%rdi
  4024a4:	f2 ae                	repnz scas %es:(%rdi),%al
  4024a6:	48 89 c8             	mov    %rcx,%rax
  4024a9:	48 f7 d0             	not    %rax
  4024ac:	49 8d 4c 00 ff       	lea    -0x1(%r8,%rax,1),%rcx
  4024b1:	48 8d 44 52 fd       	lea    -0x3(%rdx,%rdx,2),%rax
  4024b6:	48 8d 84 01 80 00 00 	lea    0x80(%rcx,%rax,1),%rax
  4024bd:	00 
  4024be:	48 3d 00 20 00 00    	cmp    $0x2000,%rax
  4024c4:	0f 87 d9 02 00 00    	ja     4027a3 <submitr+0x41e>
  4024ca:	48 8d b4 24 50 40 00 	lea    0x4050(%rsp),%rsi
  4024d1:	00 
  4024d2:	b9 00 04 00 00       	mov    $0x400,%ecx
  4024d7:	b8 00 00 00 00       	mov    $0x0,%eax
  4024dc:	48 89 f7             	mov    %rsi,%rdi
  4024df:	f3 48 ab             	rep stos %rax,%es:(%rdi)
  4024e2:	4c 89 f7             	mov    %r14,%rdi
  4024e5:	e8 88 fd ff ff       	callq  402272 <urlencode>
  4024ea:	85 c0                	test   %eax,%eax
  4024ec:	0f 88 24 03 00 00    	js     402816 <submitr+0x491>
  4024f2:	4c 8d a4 24 50 20 00 	lea    0x2050(%rsp),%r12
  4024f9:	00 
  4024fa:	41 55                	push   %r13
  4024fc:	48 8d 84 24 58 40 00 	lea    0x4058(%rsp),%rax
  402503:	00 
  402504:	50                   	push   %rax
  402505:	4d 89 f9             	mov    %r15,%r9
  402508:	4c 8b 44 24 18       	mov    0x18(%rsp),%r8
  40250d:	48 8d 0d 94 10 00 00 	lea    0x1094(%rip),%rcx        # 4035a8 <trans_char+0x38>
  402514:	ba 00 20 00 00       	mov    $0x2000,%edx
  402519:	be 01 00 00 00       	mov    $0x1,%esi
  40251e:	4c 89 e7             	mov    %r12,%rdi
  402521:	b8 00 00 00 00       	mov    $0x0,%eax
  402526:	e8 35 e9 ff ff       	callq  400e60 <__sprintf_chk@plt>
  40252b:	48 c7 c1 ff ff ff ff 	mov    $0xffffffffffffffff,%rcx
  402532:	b8 00 00 00 00       	mov    $0x0,%eax
  402537:	4c 89 e7             	mov    %r12,%rdi
  40253a:	f2 ae                	repnz scas %es:(%rdi),%al
  40253c:	48 89 ca             	mov    %rcx,%rdx
  40253f:	48 f7 d2             	not    %rdx
  402542:	48 8d 52 ff          	lea    -0x1(%rdx),%rdx
  402546:	4c 89 e6             	mov    %r12,%rsi
  402549:	89 df                	mov    %ebx,%edi
  40254b:	e8 95 fb ff ff       	callq  4020e5 <rio_writen>
  402550:	48 83 c4 10          	add    $0x10,%rsp
  402554:	48 85 c0             	test   %rax,%rax
  402557:	0f 88 44 03 00 00    	js     4028a1 <submitr+0x51c>
  40255d:	4c 8d 64 24 40       	lea    0x40(%rsp),%r12
  402562:	89 de                	mov    %ebx,%esi
  402564:	4c 89 e7             	mov    %r12,%rdi
  402567:	e8 37 fb ff ff       	callq  4020a3 <rio_readinitb>
  40256c:	48 8d b4 24 50 20 00 	lea    0x2050(%rsp),%rsi
  402573:	00 
  402574:	ba 00 20 00 00       	mov    $0x2000,%edx
  402579:	4c 89 e7             	mov    %r12,%rdi
  40257c:	e8 4d fc ff ff       	callq  4021ce <rio_readlineb>
  402581:	48 85 c0             	test   %rax,%rax
  402584:	0f 8e 86 03 00 00    	jle    402910 <submitr+0x58b>
  40258a:	48 8d 4c 24 2c       	lea    0x2c(%rsp),%rcx
  40258f:	48 8d 94 24 50 60 00 	lea    0x6050(%rsp),%rdx
  402596:	00 
  402597:	48 8d bc 24 50 20 00 	lea    0x2050(%rsp),%rdi
  40259e:	00 
  40259f:	4c 8d 84 24 50 80 00 	lea    0x8050(%rsp),%r8
  4025a6:	00 
  4025a7:	48 8d 35 71 10 00 00 	lea    0x1071(%rip),%rsi        # 40361f <trans_char+0xaf>
  4025ae:	b8 00 00 00 00       	mov    $0x0,%eax
  4025b3:	e8 08 e8 ff ff       	callq  400dc0 <__isoc99_sscanf@plt>
  4025b8:	48 8d b4 24 50 20 00 	lea    0x2050(%rsp),%rsi
  4025bf:	00 
  4025c0:	b9 03 00 00 00       	mov    $0x3,%ecx
  4025c5:	48 8d 3d 6a 10 00 00 	lea    0x106a(%rip),%rdi        # 403636 <trans_char+0xc6>
  4025cc:	f3 a6                	repz cmpsb %es:(%rdi),%ds:(%rsi)
  4025ce:	0f 97 c0             	seta   %al
  4025d1:	1c 00                	sbb    $0x0,%al
  4025d3:	84 c0                	test   %al,%al
  4025d5:	0f 84 b3 03 00 00    	je     40298e <submitr+0x609>
  4025db:	48 8d b4 24 50 20 00 	lea    0x2050(%rsp),%rsi
  4025e2:	00 
  4025e3:	48 8d 7c 24 40       	lea    0x40(%rsp),%rdi
  4025e8:	ba 00 20 00 00       	mov    $0x2000,%edx
  4025ed:	e8 dc fb ff ff       	callq  4021ce <rio_readlineb>
  4025f2:	48 85 c0             	test   %rax,%rax
  4025f5:	7f c1                	jg     4025b8 <submitr+0x233>
  4025f7:	48 b8 45 72 72 6f 72 	movabs $0x43203a726f727245,%rax
  4025fe:	3a 20 43 
  402601:	48 ba 6c 69 65 6e 74 	movabs $0x6e7520746e65696c,%rdx
  402608:	20 75 6e 
  40260b:	48 89 45 00          	mov    %rax,0x0(%rbp)
  40260f:	48 89 55 08          	mov    %rdx,0x8(%rbp)
  402613:	48 b8 61 62 6c 65 20 	movabs $0x206f7420656c6261,%rax
  40261a:	74 6f 20 
  40261d:	48 ba 72 65 61 64 20 	movabs $0x6165682064616572,%rdx
  402624:	68 65 61 
  402627:	48 89 45 10          	mov    %rax,0x10(%rbp)
  40262b:	48 89 55 18          	mov    %rdx,0x18(%rbp)
  40262f:	48 b8 64 65 72 73 20 	movabs $0x6f72662073726564,%rax
  402636:	66 72 6f 
  402639:	48 ba 6d 20 74 68 65 	movabs $0x657220656874206d,%rdx
  402640:	20 72 65 
  402643:	48 89 45 20          	mov    %rax,0x20(%rbp)
  402647:	48 89 55 28          	mov    %rdx,0x28(%rbp)
  40264b:	48 b8 73 75 6c 74 20 	movabs $0x72657320746c7573,%rax
  402652:	73 65 72 
  402655:	48 89 45 30          	mov    %rax,0x30(%rbp)
  402659:	c7 45 38 76 65 72 00 	movl   $0x726576,0x38(%rbp)
  402660:	89 df                	mov    %ebx,%edi
  402662:	e8 b9 e6 ff ff       	callq  400d20 <close@plt>
  402667:	b8 ff ff ff ff       	mov    $0xffffffff,%eax
  40266c:	48 8b 9c 24 58 a0 00 	mov    0xa058(%rsp),%rbx
  402673:	00 
  402674:	64 48 33 1c 25 28 00 	xor    %fs:0x28,%rbx
  40267b:	00 00 
  40267d:	0f 85 7e 04 00 00    	jne    402b01 <submitr+0x77c>
  402683:	48 81 c4 68 a0 00 00 	add    $0xa068,%rsp
  40268a:	5b                   	pop    %rbx
  40268b:	5d                   	pop    %rbp
  40268c:	41 5c                	pop    %r12
  40268e:	41 5d                	pop    %r13
  402690:	41 5e                	pop    %r14
  402692:	41 5f                	pop    %r15
  402694:	c3                   	retq   
  402695:	48 b8 45 72 72 6f 72 	movabs $0x43203a726f727245,%rax
  40269c:	3a 20 43 
  40269f:	48 ba 6c 69 65 6e 74 	movabs $0x6e7520746e65696c,%rdx
  4026a6:	20 75 6e 
  4026a9:	48 89 45 00          	mov    %rax,0x0(%rbp)
  4026ad:	48 89 55 08          	mov    %rdx,0x8(%rbp)
  4026b1:	48 b8 61 62 6c 65 20 	movabs $0x206f7420656c6261,%rax
  4026b8:	74 6f 20 
  4026bb:	48 ba 63 72 65 61 74 	movabs $0x7320657461657263,%rdx
  4026c2:	65 20 73 
  4026c5:	48 89 45 10          	mov    %rax,0x10(%rbp)
  4026c9:	48 89 55 18          	mov    %rdx,0x18(%rbp)
  4026cd:	c7 45 20 6f 63 6b 65 	movl   $0x656b636f,0x20(%rbp)
  4026d4:	66 c7 45 24 74 00    	movw   $0x74,0x24(%rbp)
  4026da:	b8 ff ff ff ff       	mov    $0xffffffff,%eax
  4026df:	eb 8b                	jmp    40266c <submitr+0x2e7>
  4026e1:	48 b8 45 72 72 6f 72 	movabs $0x44203a726f727245,%rax
  4026e8:	3a 20 44 
  4026eb:	48 ba 4e 53 20 69 73 	movabs $0x6e7520736920534e,%rdx
  4026f2:	20 75 6e 
  4026f5:	48 89 45 00          	mov    %rax,0x0(%rbp)
  4026f9:	48 89 55 08          	mov    %rdx,0x8(%rbp)
  4026fd:	48 b8 61 62 6c 65 20 	movabs $0x206f7420656c6261,%rax
  402704:	74 6f 20 
  402707:	48 ba 72 65 73 6f 6c 	movabs $0x2065766c6f736572,%rdx
  40270e:	76 65 20 
  402711:	48 89 45 10          	mov    %rax,0x10(%rbp)
  402715:	48 89 55 18          	mov    %rdx,0x18(%rbp)
  402719:	48 b8 73 65 72 76 65 	movabs $0x6120726576726573,%rax
  402720:	72 20 61 
  402723:	48 89 45 20          	mov    %rax,0x20(%rbp)
  402727:	c7 45 28 64 64 72 65 	movl   $0x65726464,0x28(%rbp)
  40272e:	66 c7 45 2c 73 73    	movw   $0x7373,0x2c(%rbp)
  402734:	c6 45 2e 00          	movb   $0x0,0x2e(%rbp)
  402738:	89 df                	mov    %ebx,%edi
  40273a:	e8 e1 e5 ff ff       	callq  400d20 <close@plt>
  40273f:	b8 ff ff ff ff       	mov    $0xffffffff,%eax
  402744:	e9 23 ff ff ff       	jmpq   40266c <submitr+0x2e7>
  402749:	48 b8 45 72 72 6f 72 	movabs $0x55203a726f727245,%rax
  402750:	3a 20 55 
  402753:	48 ba 6e 61 62 6c 65 	movabs $0x6f7420656c62616e,%rdx
  40275a:	20 74 6f 
  40275d:	48 89 45 00          	mov    %rax,0x0(%rbp)
  402761:	48 89 55 08          	mov    %rdx,0x8(%rbp)
  402765:	48 b8 20 63 6f 6e 6e 	movabs $0x7463656e6e6f6320,%rax
  40276c:	65 63 74 
  40276f:	48 ba 20 74 6f 20 74 	movabs $0x20656874206f7420,%rdx
  402776:	68 65 20 
  402779:	48 89 45 10          	mov    %rax,0x10(%rbp)
  40277d:	48 89 55 18          	mov    %rdx,0x18(%rbp)
  402781:	c7 45 20 73 65 72 76 	movl   $0x76726573,0x20(%rbp)
  402788:	66 c7 45 24 65 72    	movw   $0x7265,0x24(%rbp)
  40278e:	c6 45 26 00          	movb   $0x0,0x26(%rbp)
  402792:	89 df                	mov    %ebx,%edi
  402794:	e8 87 e5 ff ff       	callq  400d20 <close@plt>
  402799:	b8 ff ff ff ff       	mov    $0xffffffff,%eax
  40279e:	e9 c9 fe ff ff       	jmpq   40266c <submitr+0x2e7>
  4027a3:	48 b8 45 72 72 6f 72 	movabs $0x52203a726f727245,%rax
  4027aa:	3a 20 52 
  4027ad:	48 ba 65 73 75 6c 74 	movabs $0x747320746c757365,%rdx
  4027b4:	20 73 74 
  4027b7:	48 89 45 00          	mov    %rax,0x0(%rbp)
  4027bb:	48 89 55 08          	mov    %rdx,0x8(%rbp)
  4027bf:	48 b8 72 69 6e 67 20 	movabs $0x6f6f7420676e6972,%rax
  4027c6:	74 6f 6f 
  4027c9:	48 ba 20 6c 61 72 67 	movabs $0x202e656772616c20,%rdx
  4027d0:	65 2e 20 
  4027d3:	48 89 45 10          	mov    %rax,0x10(%rbp)
  4027d7:	48 89 55 18          	mov    %rdx,0x18(%rbp)
  4027db:	48 b8 49 6e 63 72 65 	movabs $0x6573616572636e49,%rax
  4027e2:	61 73 65 
  4027e5:	48 ba 20 53 55 42 4d 	movabs $0x5254494d42555320,%rdx
  4027ec:	49 54 52 
  4027ef:	48 89 45 20          	mov    %rax,0x20(%rbp)
  4027f3:	48 89 55 28          	mov    %rdx,0x28(%rbp)
  4027f7:	48 b8 5f 4d 41 58 42 	movabs $0x46554258414d5f,%rax
  4027fe:	55 46 00 
  402801:	48 89 45 30          	mov    %rax,0x30(%rbp)
  402805:	89 df                	mov    %ebx,%edi
  402807:	e8 14 e5 ff ff       	callq  400d20 <close@plt>
  40280c:	b8 ff ff ff ff       	mov    $0xffffffff,%eax
  402811:	e9 56 fe ff ff       	jmpq   40266c <submitr+0x2e7>
  402816:	48 b8 45 72 72 6f 72 	movabs $0x52203a726f727245,%rax
  40281d:	3a 20 52 
  402820:	48 ba 65 73 75 6c 74 	movabs $0x747320746c757365,%rdx
  402827:	20 73 74 
  40282a:	48 89 45 00          	mov    %rax,0x0(%rbp)
  40282e:	48 89 55 08          	mov    %rdx,0x8(%rbp)
  402832:	48 b8 72 69 6e 67 20 	movabs $0x6e6f6320676e6972,%rax
  402839:	63 6f 6e 
  40283c:	48 ba 74 61 69 6e 73 	movabs $0x6e6120736e696174,%rdx
  402843:	20 61 6e 
  402846:	48 89 45 10          	mov    %rax,0x10(%rbp)
  40284a:	48 89 55 18          	mov    %rdx,0x18(%rbp)
  40284e:	48 b8 20 69 6c 6c 65 	movabs $0x6c6167656c6c6920,%rax
  402855:	67 61 6c 
  402858:	48 ba 20 6f 72 20 75 	movabs $0x72706e7520726f20,%rdx
  40285f:	6e 70 72 
  402862:	48 89 45 20          	mov    %rax,0x20(%rbp)
  402866:	48 89 55 28          	mov    %rdx,0x28(%rbp)
  40286a:	48 b8 69 6e 74 61 62 	movabs $0x20656c6261746e69,%rax
  402871:	6c 65 20 
  402874:	48 ba 63 68 61 72 61 	movabs $0x6574636172616863,%rdx
  40287b:	63 74 65 
  40287e:	48 89 45 30          	mov    %rax,0x30(%rbp)
  402882:	48 89 55 38          	mov    %rdx,0x38(%rbp)
  402886:	66 c7 45 40 72 2e    	movw   $0x2e72,0x40(%rbp)
  40288c:	c6 45 42 00          	movb   $0x0,0x42(%rbp)
  402890:	89 df                	mov    %ebx,%edi
  402892:	e8 89 e4 ff ff       	callq  400d20 <close@plt>
  402897:	b8 ff ff ff ff       	mov    $0xffffffff,%eax
  40289c:	e9 cb fd ff ff       	jmpq   40266c <submitr+0x2e7>
  4028a1:	48 b8 45 72 72 6f 72 	movabs $0x43203a726f727245,%rax
  4028a8:	3a 20 43 
  4028ab:	48 ba 6c 69 65 6e 74 	movabs $0x6e7520746e65696c,%rdx
  4028b2:	20 75 6e 
  4028b5:	48 89 45 00          	mov    %rax,0x0(%rbp)
  4028b9:	48 89 55 08          	mov    %rdx,0x8(%rbp)
  4028bd:	48 b8 61 62 6c 65 20 	movabs $0x206f7420656c6261,%rax
  4028c4:	74 6f 20 
  4028c7:	48 ba 77 72 69 74 65 	movabs $0x6f74206574697277,%rdx
  4028ce:	20 74 6f 
  4028d1:	48 89 45 10          	mov    %rax,0x10(%rbp)
  4028d5:	48 89 55 18          	mov    %rdx,0x18(%rbp)
  4028d9:	48 b8 20 74 68 65 20 	movabs $0x7365722065687420,%rax
  4028e0:	72 65 73 
  4028e3:	48 ba 75 6c 74 20 73 	movabs $0x7672657320746c75,%rdx
  4028ea:	65 72 76 
  4028ed:	48 89 45 20          	mov    %rax,0x20(%rbp)
  4028f1:	48 89 55 28          	mov    %rdx,0x28(%rbp)
  4028f5:	66 c7 45 30 65 72    	movw   $0x7265,0x30(%rbp)
  4028fb:	c6 45 32 00          	movb   $0x0,0x32(%rbp)
  4028ff:	89 df                	mov    %ebx,%edi
  402901:	e8 1a e4 ff ff       	callq  400d20 <close@plt>
  402906:	b8 ff ff ff ff       	mov    $0xffffffff,%eax
  40290b:	e9 5c fd ff ff       	jmpq   40266c <submitr+0x2e7>
  402910:	48 b8 45 72 72 6f 72 	movabs $0x43203a726f727245,%rax
  402917:	3a 20 43 
  40291a:	48 ba 6c 69 65 6e 74 	movabs $0x6e7520746e65696c,%rdx
  402921:	20 75 6e 
  402924:	48 89 45 00          	mov    %rax,0x0(%rbp)
  402928:	48 89 55 08          	mov    %rdx,0x8(%rbp)
  40292c:	48 b8 61 62 6c 65 20 	movabs $0x206f7420656c6261,%rax
  402933:	74 6f 20 
  402936:	48 ba 72 65 61 64 20 	movabs $0x7269662064616572,%rdx
  40293d:	66 69 72 
  402940:	48 89 45 10          	mov    %rax,0x10(%rbp)
  402944:	48 89 55 18          	mov    %rdx,0x18(%rbp)
  402948:	48 b8 73 74 20 68 65 	movabs $0x6564616568207473,%rax
  40294f:	61 64 65 
  402952:	48 ba 72 20 66 72 6f 	movabs $0x72206d6f72662072,%rdx
  402959:	6d 20 72 
  40295c:	48 89 45 20          	mov    %rax,0x20(%rbp)
  402960:	48 89 55 28          	mov    %rdx,0x28(%rbp)
  402964:	48 b8 65 73 75 6c 74 	movabs $0x657320746c757365,%rax
  40296b:	20 73 65 
  40296e:	48 89 45 30          	mov    %rax,0x30(%rbp)
  402972:	c7 45 38 72 76 65 72 	movl   $0x72657672,0x38(%rbp)
  402979:	c6 45 3c 00          	movb   $0x0,0x3c(%rbp)
  40297d:	89 df                	mov    %ebx,%edi
  40297f:	e8 9c e3 ff ff       	callq  400d20 <close@plt>
  402984:	b8 ff ff ff ff       	mov    $0xffffffff,%eax
  402989:	e9 de fc ff ff       	jmpq   40266c <submitr+0x2e7>
  40298e:	48 8d b4 24 50 20 00 	lea    0x2050(%rsp),%rsi
  402995:	00 
  402996:	48 8d 7c 24 40       	lea    0x40(%rsp),%rdi
  40299b:	ba 00 20 00 00       	mov    $0x2000,%edx
  4029a0:	e8 29 f8 ff ff       	callq  4021ce <rio_readlineb>
  4029a5:	48 85 c0             	test   %rax,%rax
  4029a8:	0f 8e 96 00 00 00    	jle    402a44 <submitr+0x6bf>
  4029ae:	44 8b 44 24 2c       	mov    0x2c(%rsp),%r8d
  4029b3:	41 81 f8 c8 00 00 00 	cmp    $0xc8,%r8d
  4029ba:	0f 85 08 01 00 00    	jne    402ac8 <submitr+0x743>
  4029c0:	48 8d b4 24 50 20 00 	lea    0x2050(%rsp),%rsi
  4029c7:	00 
  4029c8:	48 89 ef             	mov    %rbp,%rdi
  4029cb:	e8 e0 e2 ff ff       	callq  400cb0 <strcpy@plt>
  4029d0:	89 df                	mov    %ebx,%edi
  4029d2:	e8 49 e3 ff ff       	callq  400d20 <close@plt>
  4029d7:	b9 04 00 00 00       	mov    $0x4,%ecx
  4029dc:	48 8d 3d 4d 0c 00 00 	lea    0xc4d(%rip),%rdi        # 403630 <trans_char+0xc0>
  4029e3:	48 89 ee             	mov    %rbp,%rsi
  4029e6:	f3 a6                	repz cmpsb %es:(%rdi),%ds:(%rsi)
  4029e8:	0f 97 c0             	seta   %al
  4029eb:	1c 00                	sbb    $0x0,%al
  4029ed:	0f be c0             	movsbl %al,%eax
  4029f0:	85 c0                	test   %eax,%eax
  4029f2:	0f 84 74 fc ff ff    	je     40266c <submitr+0x2e7>
  4029f8:	b9 05 00 00 00       	mov    $0x5,%ecx
  4029fd:	48 8d 3d 30 0c 00 00 	lea    0xc30(%rip),%rdi        # 403634 <trans_char+0xc4>
  402a04:	48 89 ee             	mov    %rbp,%rsi
  402a07:	f3 a6                	repz cmpsb %es:(%rdi),%ds:(%rsi)
  402a09:	0f 97 c0             	seta   %al
  402a0c:	1c 00                	sbb    $0x0,%al
  402a0e:	0f be c0             	movsbl %al,%eax
  402a11:	85 c0                	test   %eax,%eax
  402a13:	0f 84 53 fc ff ff    	je     40266c <submitr+0x2e7>
  402a19:	b9 03 00 00 00       	mov    $0x3,%ecx
  402a1e:	48 8d 3d 14 0c 00 00 	lea    0xc14(%rip),%rdi        # 403639 <trans_char+0xc9>
  402a25:	48 89 ee             	mov    %rbp,%rsi
  402a28:	f3 a6                	repz cmpsb %es:(%rdi),%ds:(%rsi)
  402a2a:	0f 97 c0             	seta   %al
  402a2d:	1c 00                	sbb    $0x0,%al
  402a2f:	0f be c0             	movsbl %al,%eax
  402a32:	85 c0                	test   %eax,%eax
  402a34:	0f 84 32 fc ff ff    	je     40266c <submitr+0x2e7>
  402a3a:	b8 ff ff ff ff       	mov    $0xffffffff,%eax
  402a3f:	e9 28 fc ff ff       	jmpq   40266c <submitr+0x2e7>
  402a44:	48 b8 45 72 72 6f 72 	movabs $0x43203a726f727245,%rax
  402a4b:	3a 20 43 
  402a4e:	48 ba 6c 69 65 6e 74 	movabs $0x6e7520746e65696c,%rdx
  402a55:	20 75 6e 
  402a58:	48 89 45 00          	mov    %rax,0x0(%rbp)
  402a5c:	48 89 55 08          	mov    %rdx,0x8(%rbp)
  402a60:	48 b8 61 62 6c 65 20 	movabs $0x206f7420656c6261,%rax
  402a67:	74 6f 20 
  402a6a:	48 ba 72 65 61 64 20 	movabs $0x6174732064616572,%rdx
  402a71:	73 74 61 
  402a74:	48 89 45 10          	mov    %rax,0x10(%rbp)
  402a78:	48 89 55 18          	mov    %rdx,0x18(%rbp)
  402a7c:	48 b8 74 75 73 20 6d 	movabs $0x7373656d20737574,%rax
  402a83:	65 73 73 
  402a86:	48 ba 61 67 65 20 66 	movabs $0x6d6f726620656761,%rdx
  402a8d:	72 6f 6d 
  402a90:	48 89 45 20          	mov    %rax,0x20(%rbp)
  402a94:	48 89 55 28          	mov    %rdx,0x28(%rbp)
  402a98:	48 b8 20 72 65 73 75 	movabs $0x20746c7573657220,%rax
  402a9f:	6c 74 20 
  402aa2:	48 89 45 30          	mov    %rax,0x30(%rbp)
  402aa6:	c7 45 38 73 65 72 76 	movl   $0x76726573,0x38(%rbp)
  402aad:	66 c7 45 3c 65 72    	movw   $0x7265,0x3c(%rbp)
  402ab3:	c6 45 3e 00          	movb   $0x0,0x3e(%rbp)
  402ab7:	89 df                	mov    %ebx,%edi
  402ab9:	e8 62 e2 ff ff       	callq  400d20 <close@plt>
  402abe:	b8 ff ff ff ff       	mov    $0xffffffff,%eax
  402ac3:	e9 a4 fb ff ff       	jmpq   40266c <submitr+0x2e7>
  402ac8:	4c 8d 8c 24 50 80 00 	lea    0x8050(%rsp),%r9
  402acf:	00 
  402ad0:	48 8d 0d 11 0b 00 00 	lea    0xb11(%rip),%rcx        # 4035e8 <trans_char+0x78>
  402ad7:	48 c7 c2 ff ff ff ff 	mov    $0xffffffffffffffff,%rdx
  402ade:	be 01 00 00 00       	mov    $0x1,%esi
  402ae3:	48 89 ef             	mov    %rbp,%rdi
  402ae6:	b8 00 00 00 00       	mov    $0x0,%eax
  402aeb:	e8 70 e3 ff ff       	callq  400e60 <__sprintf_chk@plt>
  402af0:	89 df                	mov    %ebx,%edi
  402af2:	e8 29 e2 ff ff       	callq  400d20 <close@plt>
  402af7:	b8 ff ff ff ff       	mov    $0xffffffff,%eax
  402afc:	e9 6b fb ff ff       	jmpq   40266c <submitr+0x2e7>
  402b01:	e8 da e1 ff ff       	callq  400ce0 <__stack_chk_fail@plt>

0000000000402b06 <init_timeout>:
  402b06:	85 ff                	test   %edi,%edi
  402b08:	74 28                	je     402b32 <init_timeout+0x2c>
  402b0a:	53                   	push   %rbx
  402b0b:	89 fb                	mov    %edi,%ebx
  402b0d:	85 ff                	test   %edi,%edi
  402b0f:	78 1a                	js     402b2b <init_timeout+0x25>
  402b11:	48 8d 35 9d f5 ff ff 	lea    -0xa63(%rip),%rsi        # 4020b5 <sigalrm_handler>
  402b18:	bf 0e 00 00 00       	mov    $0xe,%edi
  402b1d:	e8 1e e2 ff ff       	callq  400d40 <signal@plt>
  402b22:	89 df                	mov    %ebx,%edi
  402b24:	e8 e7 e1 ff ff       	callq  400d10 <alarm@plt>
  402b29:	5b                   	pop    %rbx
  402b2a:	c3                   	retq   
  402b2b:	bb 00 00 00 00       	mov    $0x0,%ebx
  402b30:	eb df                	jmp    402b11 <init_timeout+0xb>
  402b32:	f3 c3                	repz retq 

0000000000402b34 <init_driver>:
  402b34:	41 54                	push   %r12
  402b36:	55                   	push   %rbp
  402b37:	53                   	push   %rbx
  402b38:	48 83 ec 20          	sub    $0x20,%rsp
  402b3c:	49 89 fc             	mov    %rdi,%r12
  402b3f:	64 48 8b 04 25 28 00 	mov    %fs:0x28,%rax
  402b46:	00 00 
  402b48:	48 89 44 24 18       	mov    %rax,0x18(%rsp)
  402b4d:	31 c0                	xor    %eax,%eax
  402b4f:	be 01 00 00 00       	mov    $0x1,%esi
  402b54:	bf 0d 00 00 00       	mov    $0xd,%edi
  402b59:	e8 e2 e1 ff ff       	callq  400d40 <signal@plt>
  402b5e:	be 01 00 00 00       	mov    $0x1,%esi
  402b63:	bf 1d 00 00 00       	mov    $0x1d,%edi
  402b68:	e8 d3 e1 ff ff       	callq  400d40 <signal@plt>
  402b6d:	be 01 00 00 00       	mov    $0x1,%esi
  402b72:	bf 1d 00 00 00       	mov    $0x1d,%edi
  402b77:	e8 c4 e1 ff ff       	callq  400d40 <signal@plt>
  402b7c:	ba 00 00 00 00       	mov    $0x0,%edx
  402b81:	be 01 00 00 00       	mov    $0x1,%esi
  402b86:	bf 02 00 00 00       	mov    $0x2,%edi
  402b8b:	e8 e0 e2 ff ff       	callq  400e70 <socket@plt>
  402b90:	85 c0                	test   %eax,%eax
  402b92:	0f 88 a3 00 00 00    	js     402c3b <init_driver+0x107>
  402b98:	89 c3                	mov    %eax,%ebx
  402b9a:	48 8d 3d 9b 0a 00 00 	lea    0xa9b(%rip),%rdi        # 40363c <trans_char+0xcc>
  402ba1:	e8 aa e1 ff ff       	callq  400d50 <gethostbyname@plt>
  402ba6:	48 85 c0             	test   %rax,%rax
  402ba9:	0f 84 df 00 00 00    	je     402c8e <init_driver+0x15a>
  402baf:	48 89 e5             	mov    %rsp,%rbp
  402bb2:	48 c7 44 24 02 00 00 	movq   $0x0,0x2(%rsp)
  402bb9:	00 00 
  402bbb:	c7 45 0a 00 00 00 00 	movl   $0x0,0xa(%rbp)
  402bc2:	66 c7 45 0e 00 00    	movw   $0x0,0xe(%rbp)
  402bc8:	66 c7 04 24 02 00    	movw   $0x2,(%rsp)
  402bce:	48 63 50 14          	movslq 0x14(%rax),%rdx
  402bd2:	48 8b 40 18          	mov    0x18(%rax),%rax
  402bd6:	48 8b 30             	mov    (%rax),%rsi
  402bd9:	48 8d 7d 04          	lea    0x4(%rbp),%rdi
  402bdd:	b9 0c 00 00 00       	mov    $0xc,%ecx
  402be2:	e8 79 e1 ff ff       	callq  400d60 <__memmove_chk@plt>
  402be7:	66 c7 44 24 02 3c 9a 	movw   $0x9a3c,0x2(%rsp)
  402bee:	ba 10 00 00 00       	mov    $0x10,%edx
  402bf3:	48 89 ee             	mov    %rbp,%rsi
  402bf6:	89 df                	mov    %ebx,%edi
  402bf8:	e8 43 e2 ff ff       	callq  400e40 <connect@plt>
  402bfd:	85 c0                	test   %eax,%eax
  402bff:	0f 88 fb 00 00 00    	js     402d00 <init_driver+0x1cc>
  402c05:	89 df                	mov    %ebx,%edi
  402c07:	e8 14 e1 ff ff       	callq  400d20 <close@plt>
  402c0c:	66 41 c7 04 24 4f 4b 	movw   $0x4b4f,(%r12)
  402c13:	41 c6 44 24 02 00    	movb   $0x0,0x2(%r12)
  402c19:	b8 00 00 00 00       	mov    $0x0,%eax
  402c1e:	48 8b 4c 24 18       	mov    0x18(%rsp),%rcx
  402c23:	64 48 33 0c 25 28 00 	xor    %fs:0x28,%rcx
  402c2a:	00 00 
  402c2c:	0f 85 28 01 00 00    	jne    402d5a <init_driver+0x226>
  402c32:	48 83 c4 20          	add    $0x20,%rsp
  402c36:	5b                   	pop    %rbx
  402c37:	5d                   	pop    %rbp
  402c38:	41 5c                	pop    %r12
  402c3a:	c3                   	retq   
  402c3b:	48 b8 45 72 72 6f 72 	movabs $0x43203a726f727245,%rax
  402c42:	3a 20 43 
  402c45:	48 ba 6c 69 65 6e 74 	movabs $0x6e7520746e65696c,%rdx
  402c4c:	20 75 6e 
  402c4f:	49 89 04 24          	mov    %rax,(%r12)
  402c53:	49 89 54 24 08       	mov    %rdx,0x8(%r12)
  402c58:	48 b8 61 62 6c 65 20 	movabs $0x206f7420656c6261,%rax
  402c5f:	74 6f 20 
  402c62:	48 ba 63 72 65 61 74 	movabs $0x7320657461657263,%rdx
  402c69:	65 20 73 
  402c6c:	49 89 44 24 10       	mov    %rax,0x10(%r12)
  402c71:	49 89 54 24 18       	mov    %rdx,0x18(%r12)
  402c76:	41 c7 44 24 20 6f 63 	movl   $0x656b636f,0x20(%r12)
  402c7d:	6b 65 
  402c7f:	66 41 c7 44 24 24 74 	movw   $0x74,0x24(%r12)
  402c86:	00 
  402c87:	b8 ff ff ff ff       	mov    $0xffffffff,%eax
  402c8c:	eb 90                	jmp    402c1e <init_driver+0xea>
  402c8e:	48 b8 45 72 72 6f 72 	movabs $0x44203a726f727245,%rax
  402c95:	3a 20 44 
  402c98:	48 ba 4e 53 20 69 73 	movabs $0x6e7520736920534e,%rdx
  402c9f:	20 75 6e 
  402ca2:	49 89 04 24          	mov    %rax,(%r12)
  402ca6:	49 89 54 24 08       	mov    %rdx,0x8(%r12)
  402cab:	48 b8 61 62 6c 65 20 	movabs $0x206f7420656c6261,%rax
  402cb2:	74 6f 20 
  402cb5:	48 ba 72 65 73 6f 6c 	movabs $0x2065766c6f736572,%rdx
  402cbc:	76 65 20 
  402cbf:	49 89 44 24 10       	mov    %rax,0x10(%r12)
  402cc4:	49 89 54 24 18       	mov    %rdx,0x18(%r12)
  402cc9:	48 b8 73 65 72 76 65 	movabs $0x6120726576726573,%rax
  402cd0:	72 20 61 
  402cd3:	49 89 44 24 20       	mov    %rax,0x20(%r12)
  402cd8:	41 c7 44 24 28 64 64 	movl   $0x65726464,0x28(%r12)
  402cdf:	72 65 
  402ce1:	66 41 c7 44 24 2c 73 	movw   $0x7373,0x2c(%r12)
  402ce8:	73 
  402ce9:	41 c6 44 24 2e 00    	movb   $0x0,0x2e(%r12)
  402cef:	89 df                	mov    %ebx,%edi
  402cf1:	e8 2a e0 ff ff       	callq  400d20 <close@plt>
  402cf6:	b8 ff ff ff ff       	mov    $0xffffffff,%eax
  402cfb:	e9 1e ff ff ff       	jmpq   402c1e <init_driver+0xea>
  402d00:	48 b8 45 72 72 6f 72 	movabs $0x55203a726f727245,%rax
  402d07:	3a 20 55 
  402d0a:	48 ba 6e 61 62 6c 65 	movabs $0x6f7420656c62616e,%rdx
  402d11:	20 74 6f 
  402d14:	49 89 04 24          	mov    %rax,(%r12)
  402d18:	49 89 54 24 08       	mov    %rdx,0x8(%r12)
  402d1d:	48 b8 20 63 6f 6e 6e 	movabs $0x7463656e6e6f6320,%rax
  402d24:	65 63 74 
  402d27:	48 ba 20 74 6f 20 73 	movabs $0x76726573206f7420,%rdx
  402d2e:	65 72 76 
  402d31:	49 89 44 24 10       	mov    %rax,0x10(%r12)
  402d36:	49 89 54 24 18       	mov    %rdx,0x18(%r12)
  402d3b:	66 41 c7 44 24 20 65 	movw   $0x7265,0x20(%r12)
  402d42:	72 
  402d43:	41 c6 44 24 22 00    	movb   $0x0,0x22(%r12)
  402d49:	89 df                	mov    %ebx,%edi
  402d4b:	e8 d0 df ff ff       	callq  400d20 <close@plt>
  402d50:	b8 ff ff ff ff       	mov    $0xffffffff,%eax
  402d55:	e9 c4 fe ff ff       	jmpq   402c1e <init_driver+0xea>
  402d5a:	e8 81 df ff ff       	callq  400ce0 <__stack_chk_fail@plt>

0000000000402d5f <driver_post>:
  402d5f:	53                   	push   %rbx
  402d60:	4c 89 cb             	mov    %r9,%rbx
  402d63:	45 85 c0             	test   %r8d,%r8d
  402d66:	75 18                	jne    402d80 <driver_post+0x21>
  402d68:	48 85 ff             	test   %rdi,%rdi
  402d6b:	74 05                	je     402d72 <driver_post+0x13>
  402d6d:	80 3f 00             	cmpb   $0x0,(%rdi)
  402d70:	75 37                	jne    402da9 <driver_post+0x4a>
  402d72:	66 c7 03 4f 4b       	movw   $0x4b4f,(%rbx)
  402d77:	c6 43 02 00          	movb   $0x0,0x2(%rbx)
  402d7b:	44 89 c0             	mov    %r8d,%eax
  402d7e:	5b                   	pop    %rbx
  402d7f:	c3                   	retq   
  402d80:	48 89 ca             	mov    %rcx,%rdx
  402d83:	48 8d 35 be 08 00 00 	lea    0x8be(%rip),%rsi        # 403648 <trans_char+0xd8>
  402d8a:	bf 01 00 00 00       	mov    $0x1,%edi
  402d8f:	b8 00 00 00 00       	mov    $0x0,%eax
  402d94:	e8 47 e0 ff ff       	callq  400de0 <__printf_chk@plt>
  402d99:	66 c7 03 4f 4b       	movw   $0x4b4f,(%rbx)
  402d9e:	c6 43 02 00          	movb   $0x0,0x2(%rbx)
  402da2:	b8 00 00 00 00       	mov    $0x0,%eax
  402da7:	eb d5                	jmp    402d7e <driver_post+0x1f>
  402da9:	48 83 ec 08          	sub    $0x8,%rsp
  402dad:	41 51                	push   %r9
  402daf:	49 89 c9             	mov    %rcx,%r9
  402db2:	49 89 d0             	mov    %rdx,%r8
  402db5:	48 89 f9             	mov    %rdi,%rcx
  402db8:	48 89 f2             	mov    %rsi,%rdx
  402dbb:	be 9a 3c 00 00       	mov    $0x3c9a,%esi
  402dc0:	48 8d 3d 75 08 00 00 	lea    0x875(%rip),%rdi        # 40363c <trans_char+0xcc>
  402dc7:	e8 b9 f5 ff ff       	callq  402385 <submitr>
  402dcc:	48 83 c4 10          	add    $0x10,%rsp
  402dd0:	eb ac                	jmp    402d7e <driver_post+0x1f>

0000000000402dd2 <check>:
  402dd2:	89 f8                	mov    %edi,%eax
  402dd4:	c1 e8 1c             	shr    $0x1c,%eax
  402dd7:	85 c0                	test   %eax,%eax
  402dd9:	74 1d                	je     402df8 <check+0x26>
  402ddb:	b9 00 00 00 00       	mov    $0x0,%ecx
  402de0:	83 f9 1f             	cmp    $0x1f,%ecx
  402de3:	7f 0d                	jg     402df2 <check+0x20>
  402de5:	89 f8                	mov    %edi,%eax
  402de7:	d3 e8                	shr    %cl,%eax
  402de9:	3c 0a                	cmp    $0xa,%al
  402deb:	74 11                	je     402dfe <check+0x2c>
  402ded:	83 c1 08             	add    $0x8,%ecx
  402df0:	eb ee                	jmp    402de0 <check+0xe>
  402df2:	b8 01 00 00 00       	mov    $0x1,%eax
  402df7:	c3                   	retq   
  402df8:	b8 00 00 00 00       	mov    $0x0,%eax
  402dfd:	c3                   	retq   
  402dfe:	b8 00 00 00 00       	mov    $0x0,%eax
  402e03:	c3                   	retq   

0000000000402e04 <gencookie>:
  402e04:	53                   	push   %rbx
  402e05:	83 c7 01             	add    $0x1,%edi
  402e08:	e8 83 de ff ff       	callq  400c90 <srandom@plt>
  402e0d:	e8 8e df ff ff       	callq  400da0 <random@plt>
  402e12:	89 c3                	mov    %eax,%ebx
  402e14:	89 c7                	mov    %eax,%edi
  402e16:	e8 b7 ff ff ff       	callq  402dd2 <check>
  402e1b:	85 c0                	test   %eax,%eax
  402e1d:	74 ee                	je     402e0d <gencookie+0x9>
  402e1f:	89 d8                	mov    %ebx,%eax
  402e21:	5b                   	pop    %rbx
  402e22:	c3                   	retq   
  402e23:	66 2e 0f 1f 84 00 00 	nopw   %cs:0x0(%rax,%rax,1)
  402e2a:	00 00 00 
  402e2d:	0f 1f 00             	nopl   (%rax)

0000000000402e30 <__libc_csu_init>:
  402e30:	41 57                	push   %r15
  402e32:	41 56                	push   %r14
  402e34:	49 89 d7             	mov    %rdx,%r15
  402e37:	41 55                	push   %r13
  402e39:	41 54                	push   %r12
  402e3b:	4c 8d 25 ce 0f 20 00 	lea    0x200fce(%rip),%r12        # 603e10 <__frame_dummy_init_array_entry>
  402e42:	55                   	push   %rbp
  402e43:	48 8d 2d ce 0f 20 00 	lea    0x200fce(%rip),%rbp        # 603e18 <__do_global_dtors_aux_fini_array_entry>
  402e4a:	53                   	push   %rbx
  402e4b:	41 89 fd             	mov    %edi,%r13d
  402e4e:	49 89 f6             	mov    %rsi,%r14
  402e51:	4c 29 e5             	sub    %r12,%rbp
  402e54:	48 83 ec 08          	sub    $0x8,%rsp
  402e58:	48 c1 fd 03          	sar    $0x3,%rbp
  402e5c:	e8 e7 dd ff ff       	callq  400c48 <_init>
  402e61:	48 85 ed             	test   %rbp,%rbp
  402e64:	74 20                	je     402e86 <__libc_csu_init+0x56>
  402e66:	31 db                	xor    %ebx,%ebx
  402e68:	0f 1f 84 00 00 00 00 	nopl   0x0(%rax,%rax,1)
  402e6f:	00 
  402e70:	4c 89 fa             	mov    %r15,%rdx
  402e73:	4c 89 f6             	mov    %r14,%rsi
  402e76:	44 89 ef             	mov    %r13d,%edi
  402e79:	41 ff 14 dc          	callq  *(%r12,%rbx,8)
  402e7d:	48 83 c3 01          	add    $0x1,%rbx
  402e81:	48 39 dd             	cmp    %rbx,%rbp
  402e84:	75 ea                	jne    402e70 <__libc_csu_init+0x40>
  402e86:	48 83 c4 08          	add    $0x8,%rsp
  402e8a:	5b                   	pop    %rbx
  402e8b:	5d                   	pop    %rbp
  402e8c:	41 5c                	pop    %r12
  402e8e:	41 5d                	pop    %r13
  402e90:	41 5e                	pop    %r14
  402e92:	41 5f                	pop    %r15
  402e94:	c3                   	retq   
  402e95:	90                   	nop
  402e96:	66 2e 0f 1f 84 00 00 	nopw   %cs:0x0(%rax,%rax,1)
  402e9d:	00 00 00 

0000000000402ea0 <__libc_csu_fini>:
  402ea0:	f3 c3                	repz retq 

Disassembly of section .fini:

0000000000402ea4 <_fini>:
  402ea4:	48 83 ec 08          	sub    $0x8,%rsp
  402ea8:	48 83 c4 08          	add    $0x8,%rsp
  402eac:	c3                   	retq   
