
rtarget:     file format elf64-x86-64


Disassembly of section .init:

0000000000400c48 <_init>:
  400c48:	48 83 ec 08          	sub    $0x8,%rsp
  400c4c:	48 8b 05 a5 43 20 00 	mov    0x2043a5(%rip),%rax        # 604ff8 <__gmon_start__>
  400c53:	48 85 c0             	test   %rax,%rax
  400c56:	74 02                	je     400c5a <_init+0x12>
  400c58:	ff d0                	callq  *%rax
  400c5a:	48 83 c4 08          	add    $0x8,%rsp
  400c5e:	c3                   	retq   

Disassembly of section .plt:

0000000000400c60 <.plt>:
  400c60:	ff 35 a2 43 20 00    	pushq  0x2043a2(%rip)        # 605008 <_GLOBAL_OFFSET_TABLE_+0x8>
  400c66:	ff 25 a4 43 20 00    	jmpq   *0x2043a4(%rip)        # 605010 <_GLOBAL_OFFSET_TABLE_+0x10>
  400c6c:	0f 1f 40 00          	nopl   0x0(%rax)

0000000000400c70 <strcasecmp@plt>:
  400c70:	ff 25 a2 43 20 00    	jmpq   *0x2043a2(%rip)        # 605018 <strcasecmp@GLIBC_2.2.5>
  400c76:	68 00 00 00 00       	pushq  $0x0
  400c7b:	e9 e0 ff ff ff       	jmpq   400c60 <.plt>

0000000000400c80 <__errno_location@plt>:
  400c80:	ff 25 9a 43 20 00    	jmpq   *0x20439a(%rip)        # 605020 <__errno_location@GLIBC_2.2.5>
  400c86:	68 01 00 00 00       	pushq  $0x1
  400c8b:	e9 d0 ff ff ff       	jmpq   400c60 <.plt>

0000000000400c90 <srandom@plt>:
  400c90:	ff 25 92 43 20 00    	jmpq   *0x204392(%rip)        # 605028 <srandom@GLIBC_2.2.5>
  400c96:	68 02 00 00 00       	pushq  $0x2
  400c9b:	e9 c0 ff ff ff       	jmpq   400c60 <.plt>

0000000000400ca0 <strncmp@plt>:
  400ca0:	ff 25 8a 43 20 00    	jmpq   *0x20438a(%rip)        # 605030 <strncmp@GLIBC_2.2.5>
  400ca6:	68 03 00 00 00       	pushq  $0x3
  400cab:	e9 b0 ff ff ff       	jmpq   400c60 <.plt>

0000000000400cb0 <strcpy@plt>:
  400cb0:	ff 25 82 43 20 00    	jmpq   *0x204382(%rip)        # 605038 <strcpy@GLIBC_2.2.5>
  400cb6:	68 04 00 00 00       	pushq  $0x4
  400cbb:	e9 a0 ff ff ff       	jmpq   400c60 <.plt>

0000000000400cc0 <puts@plt>:
  400cc0:	ff 25 7a 43 20 00    	jmpq   *0x20437a(%rip)        # 605040 <puts@GLIBC_2.2.5>
  400cc6:	68 05 00 00 00       	pushq  $0x5
  400ccb:	e9 90 ff ff ff       	jmpq   400c60 <.plt>

0000000000400cd0 <write@plt>:
  400cd0:	ff 25 72 43 20 00    	jmpq   *0x204372(%rip)        # 605048 <write@GLIBC_2.2.5>
  400cd6:	68 06 00 00 00       	pushq  $0x6
  400cdb:	e9 80 ff ff ff       	jmpq   400c60 <.plt>

0000000000400ce0 <__stack_chk_fail@plt>:
  400ce0:	ff 25 6a 43 20 00    	jmpq   *0x20436a(%rip)        # 605050 <__stack_chk_fail@GLIBC_2.4>
  400ce6:	68 07 00 00 00       	pushq  $0x7
  400ceb:	e9 70 ff ff ff       	jmpq   400c60 <.plt>

0000000000400cf0 <mmap@plt>:
  400cf0:	ff 25 62 43 20 00    	jmpq   *0x204362(%rip)        # 605058 <mmap@GLIBC_2.2.5>
  400cf6:	68 08 00 00 00       	pushq  $0x8
  400cfb:	e9 60 ff ff ff       	jmpq   400c60 <.plt>

0000000000400d00 <memset@plt>:
  400d00:	ff 25 5a 43 20 00    	jmpq   *0x20435a(%rip)        # 605060 <memset@GLIBC_2.2.5>
  400d06:	68 09 00 00 00       	pushq  $0x9
  400d0b:	e9 50 ff ff ff       	jmpq   400c60 <.plt>

0000000000400d10 <alarm@plt>:
  400d10:	ff 25 52 43 20 00    	jmpq   *0x204352(%rip)        # 605068 <alarm@GLIBC_2.2.5>
  400d16:	68 0a 00 00 00       	pushq  $0xa
  400d1b:	e9 40 ff ff ff       	jmpq   400c60 <.plt>

0000000000400d20 <close@plt>:
  400d20:	ff 25 4a 43 20 00    	jmpq   *0x20434a(%rip)        # 605070 <close@GLIBC_2.2.5>
  400d26:	68 0b 00 00 00       	pushq  $0xb
  400d2b:	e9 30 ff ff ff       	jmpq   400c60 <.plt>

0000000000400d30 <read@plt>:
  400d30:	ff 25 42 43 20 00    	jmpq   *0x204342(%rip)        # 605078 <read@GLIBC_2.2.5>
  400d36:	68 0c 00 00 00       	pushq  $0xc
  400d3b:	e9 20 ff ff ff       	jmpq   400c60 <.plt>

0000000000400d40 <signal@plt>:
  400d40:	ff 25 3a 43 20 00    	jmpq   *0x20433a(%rip)        # 605080 <signal@GLIBC_2.2.5>
  400d46:	68 0d 00 00 00       	pushq  $0xd
  400d4b:	e9 10 ff ff ff       	jmpq   400c60 <.plt>

0000000000400d50 <gethostbyname@plt>:
  400d50:	ff 25 32 43 20 00    	jmpq   *0x204332(%rip)        # 605088 <gethostbyname@GLIBC_2.2.5>
  400d56:	68 0e 00 00 00       	pushq  $0xe
  400d5b:	e9 00 ff ff ff       	jmpq   400c60 <.plt>

0000000000400d60 <__memmove_chk@plt>:
  400d60:	ff 25 2a 43 20 00    	jmpq   *0x20432a(%rip)        # 605090 <__memmove_chk@GLIBC_2.3.4>
  400d66:	68 0f 00 00 00       	pushq  $0xf
  400d6b:	e9 f0 fe ff ff       	jmpq   400c60 <.plt>

0000000000400d70 <strtol@plt>:
  400d70:	ff 25 22 43 20 00    	jmpq   *0x204322(%rip)        # 605098 <strtol@GLIBC_2.2.5>
  400d76:	68 10 00 00 00       	pushq  $0x10
  400d7b:	e9 e0 fe ff ff       	jmpq   400c60 <.plt>

0000000000400d80 <memcpy@plt>:
  400d80:	ff 25 1a 43 20 00    	jmpq   *0x20431a(%rip)        # 6050a0 <memcpy@GLIBC_2.14>
  400d86:	68 11 00 00 00       	pushq  $0x11
  400d8b:	e9 d0 fe ff ff       	jmpq   400c60 <.plt>

0000000000400d90 <time@plt>:
  400d90:	ff 25 12 43 20 00    	jmpq   *0x204312(%rip)        # 6050a8 <time@GLIBC_2.2.5>
  400d96:	68 12 00 00 00       	pushq  $0x12
  400d9b:	e9 c0 fe ff ff       	jmpq   400c60 <.plt>

0000000000400da0 <random@plt>:
  400da0:	ff 25 0a 43 20 00    	jmpq   *0x20430a(%rip)        # 6050b0 <random@GLIBC_2.2.5>
  400da6:	68 13 00 00 00       	pushq  $0x13
  400dab:	e9 b0 fe ff ff       	jmpq   400c60 <.plt>

0000000000400db0 <_IO_getc@plt>:
  400db0:	ff 25 02 43 20 00    	jmpq   *0x204302(%rip)        # 6050b8 <_IO_getc@GLIBC_2.2.5>
  400db6:	68 14 00 00 00       	pushq  $0x14
  400dbb:	e9 a0 fe ff ff       	jmpq   400c60 <.plt>

0000000000400dc0 <__isoc99_sscanf@plt>:
  400dc0:	ff 25 fa 42 20 00    	jmpq   *0x2042fa(%rip)        # 6050c0 <__isoc99_sscanf@GLIBC_2.7>
  400dc6:	68 15 00 00 00       	pushq  $0x15
  400dcb:	e9 90 fe ff ff       	jmpq   400c60 <.plt>

0000000000400dd0 <munmap@plt>:
  400dd0:	ff 25 f2 42 20 00    	jmpq   *0x2042f2(%rip)        # 6050c8 <munmap@GLIBC_2.2.5>
  400dd6:	68 16 00 00 00       	pushq  $0x16
  400ddb:	e9 80 fe ff ff       	jmpq   400c60 <.plt>

0000000000400de0 <__printf_chk@plt>:
  400de0:	ff 25 ea 42 20 00    	jmpq   *0x2042ea(%rip)        # 6050d0 <__printf_chk@GLIBC_2.3.4>
  400de6:	68 17 00 00 00       	pushq  $0x17
  400deb:	e9 70 fe ff ff       	jmpq   400c60 <.plt>

0000000000400df0 <fopen@plt>:
  400df0:	ff 25 e2 42 20 00    	jmpq   *0x2042e2(%rip)        # 6050d8 <fopen@GLIBC_2.2.5>
  400df6:	68 18 00 00 00       	pushq  $0x18
  400dfb:	e9 60 fe ff ff       	jmpq   400c60 <.plt>

0000000000400e00 <getopt@plt>:
  400e00:	ff 25 da 42 20 00    	jmpq   *0x2042da(%rip)        # 6050e0 <getopt@GLIBC_2.2.5>
  400e06:	68 19 00 00 00       	pushq  $0x19
  400e0b:	e9 50 fe ff ff       	jmpq   400c60 <.plt>

0000000000400e10 <strtoul@plt>:
  400e10:	ff 25 d2 42 20 00    	jmpq   *0x2042d2(%rip)        # 6050e8 <strtoul@GLIBC_2.2.5>
  400e16:	68 1a 00 00 00       	pushq  $0x1a
  400e1b:	e9 40 fe ff ff       	jmpq   400c60 <.plt>

0000000000400e20 <gethostname@plt>:
  400e20:	ff 25 ca 42 20 00    	jmpq   *0x2042ca(%rip)        # 6050f0 <gethostname@GLIBC_2.2.5>
  400e26:	68 1b 00 00 00       	pushq  $0x1b
  400e2b:	e9 30 fe ff ff       	jmpq   400c60 <.plt>

0000000000400e30 <exit@plt>:
  400e30:	ff 25 c2 42 20 00    	jmpq   *0x2042c2(%rip)        # 6050f8 <exit@GLIBC_2.2.5>
  400e36:	68 1c 00 00 00       	pushq  $0x1c
  400e3b:	e9 20 fe ff ff       	jmpq   400c60 <.plt>

0000000000400e40 <connect@plt>:
  400e40:	ff 25 ba 42 20 00    	jmpq   *0x2042ba(%rip)        # 605100 <connect@GLIBC_2.2.5>
  400e46:	68 1d 00 00 00       	pushq  $0x1d
  400e4b:	e9 10 fe ff ff       	jmpq   400c60 <.plt>

0000000000400e50 <__fprintf_chk@plt>:
  400e50:	ff 25 b2 42 20 00    	jmpq   *0x2042b2(%rip)        # 605108 <__fprintf_chk@GLIBC_2.3.4>
  400e56:	68 1e 00 00 00       	pushq  $0x1e
  400e5b:	e9 00 fe ff ff       	jmpq   400c60 <.plt>

0000000000400e60 <__sprintf_chk@plt>:
  400e60:	ff 25 aa 42 20 00    	jmpq   *0x2042aa(%rip)        # 605110 <__sprintf_chk@GLIBC_2.3.4>
  400e66:	68 1f 00 00 00       	pushq  $0x1f
  400e6b:	e9 f0 fd ff ff       	jmpq   400c60 <.plt>

0000000000400e70 <socket@plt>:
  400e70:	ff 25 a2 42 20 00    	jmpq   *0x2042a2(%rip)        # 605118 <socket@GLIBC_2.2.5>
  400e76:	68 20 00 00 00       	pushq  $0x20
  400e7b:	e9 e0 fd ff ff       	jmpq   400c60 <.plt>

Disassembly of section .text:

0000000000400e80 <_start>:
  400e80:	31 ed                	xor    %ebp,%ebp
  400e82:	49 89 d1             	mov    %rdx,%r9
  400e85:	5e                   	pop    %rsi
  400e86:	48 89 e2             	mov    %rsp,%rdx
  400e89:	48 83 e4 f0          	and    $0xfffffffffffffff0,%rsp
  400e8d:	50                   	push   %rax
  400e8e:	54                   	push   %rsp
  400e8f:	49 c7 c0 c0 2f 40 00 	mov    $0x402fc0,%r8
  400e96:	48 c7 c1 50 2f 40 00 	mov    $0x402f50,%rcx
  400e9d:	48 c7 c7 60 11 40 00 	mov    $0x401160,%rdi
  400ea4:	ff 15 46 41 20 00    	callq  *0x204146(%rip)        # 604ff0 <__libc_start_main@GLIBC_2.2.5>
  400eaa:	f4                   	hlt    
  400eab:	0f 1f 44 00 00       	nopl   0x0(%rax,%rax,1)

0000000000400eb0 <_dl_relocate_static_pie>:
  400eb0:	f3 c3                	repz retq 
  400eb2:	66 2e 0f 1f 84 00 00 	nopw   %cs:0x0(%rax,%rax,1)
  400eb9:	00 00 00 
  400ebc:	0f 1f 40 00          	nopl   0x0(%rax)

0000000000400ec0 <deregister_tm_clones>:
  400ec0:	55                   	push   %rbp
  400ec1:	b8 90 54 60 00       	mov    $0x605490,%eax
  400ec6:	48 3d 90 54 60 00    	cmp    $0x605490,%rax
  400ecc:	48 89 e5             	mov    %rsp,%rbp
  400ecf:	74 17                	je     400ee8 <deregister_tm_clones+0x28>
  400ed1:	b8 00 00 00 00       	mov    $0x0,%eax
  400ed6:	48 85 c0             	test   %rax,%rax
  400ed9:	74 0d                	je     400ee8 <deregister_tm_clones+0x28>
  400edb:	5d                   	pop    %rbp
  400edc:	bf 90 54 60 00       	mov    $0x605490,%edi
  400ee1:	ff e0                	jmpq   *%rax
  400ee3:	0f 1f 44 00 00       	nopl   0x0(%rax,%rax,1)
  400ee8:	5d                   	pop    %rbp
  400ee9:	c3                   	retq   
  400eea:	66 0f 1f 44 00 00    	nopw   0x0(%rax,%rax,1)

0000000000400ef0 <register_tm_clones>:
  400ef0:	be 90 54 60 00       	mov    $0x605490,%esi
  400ef5:	55                   	push   %rbp
  400ef6:	48 81 ee 90 54 60 00 	sub    $0x605490,%rsi
  400efd:	48 89 e5             	mov    %rsp,%rbp
  400f00:	48 c1 fe 03          	sar    $0x3,%rsi
  400f04:	48 89 f0             	mov    %rsi,%rax
  400f07:	48 c1 e8 3f          	shr    $0x3f,%rax
  400f0b:	48 01 c6             	add    %rax,%rsi
  400f0e:	48 d1 fe             	sar    %rsi
  400f11:	74 15                	je     400f28 <register_tm_clones+0x38>
  400f13:	b8 00 00 00 00       	mov    $0x0,%eax
  400f18:	48 85 c0             	test   %rax,%rax
  400f1b:	74 0b                	je     400f28 <register_tm_clones+0x38>
  400f1d:	5d                   	pop    %rbp
  400f1e:	bf 90 54 60 00       	mov    $0x605490,%edi
  400f23:	ff e0                	jmpq   *%rax
  400f25:	0f 1f 00             	nopl   (%rax)
  400f28:	5d                   	pop    %rbp
  400f29:	c3                   	retq   
  400f2a:	66 0f 1f 44 00 00    	nopw   0x0(%rax,%rax,1)

0000000000400f30 <__do_global_dtors_aux>:
  400f30:	80 3d 91 45 20 00 00 	cmpb   $0x0,0x204591(%rip)        # 6054c8 <completed.7697>
  400f37:	75 17                	jne    400f50 <__do_global_dtors_aux+0x20>
  400f39:	55                   	push   %rbp
  400f3a:	48 89 e5             	mov    %rsp,%rbp
  400f3d:	e8 7e ff ff ff       	callq  400ec0 <deregister_tm_clones>
  400f42:	c6 05 7f 45 20 00 01 	movb   $0x1,0x20457f(%rip)        # 6054c8 <completed.7697>
  400f49:	5d                   	pop    %rbp
  400f4a:	c3                   	retq   
  400f4b:	0f 1f 44 00 00       	nopl   0x0(%rax,%rax,1)
  400f50:	f3 c3                	repz retq 
  400f52:	0f 1f 40 00          	nopl   0x0(%rax)
  400f56:	66 2e 0f 1f 84 00 00 	nopw   %cs:0x0(%rax,%rax,1)
  400f5d:	00 00 00 

0000000000400f60 <frame_dummy>:
  400f60:	55                   	push   %rbp
  400f61:	48 89 e5             	mov    %rsp,%rbp
  400f64:	5d                   	pop    %rbp
  400f65:	eb 89                	jmp    400ef0 <register_tm_clones>

0000000000400f67 <usage>:
  400f67:	48 83 ec 08          	sub    $0x8,%rsp
  400f6b:	48 89 fa             	mov    %rdi,%rdx
  400f6e:	83 3d 93 45 20 00 00 	cmpl   $0x0,0x204593(%rip)        # 605508 <is_checker>
  400f75:	74 50                	je     400fc7 <usage+0x60>
  400f77:	48 8d 35 5a 20 00 00 	lea    0x205a(%rip),%rsi        # 402fd8 <_IO_stdin_used+0x8>
  400f7e:	bf 01 00 00 00       	mov    $0x1,%edi
  400f83:	b8 00 00 00 00       	mov    $0x0,%eax
  400f88:	e8 53 fe ff ff       	callq  400de0 <__printf_chk@plt>
  400f8d:	48 8d 3d 7c 20 00 00 	lea    0x207c(%rip),%rdi        # 403010 <_IO_stdin_used+0x40>
  400f94:	e8 27 fd ff ff       	callq  400cc0 <puts@plt>
  400f99:	48 8d 3d a8 21 00 00 	lea    0x21a8(%rip),%rdi        # 403148 <_IO_stdin_used+0x178>
  400fa0:	e8 1b fd ff ff       	callq  400cc0 <puts@plt>
  400fa5:	48 8d 3d 8c 20 00 00 	lea    0x208c(%rip),%rdi        # 403038 <_IO_stdin_used+0x68>
  400fac:	e8 0f fd ff ff       	callq  400cc0 <puts@plt>
  400fb1:	48 8d 3d aa 21 00 00 	lea    0x21aa(%rip),%rdi        # 403162 <_IO_stdin_used+0x192>
  400fb8:	e8 03 fd ff ff       	callq  400cc0 <puts@plt>
  400fbd:	bf 00 00 00 00       	mov    $0x0,%edi
  400fc2:	e8 69 fe ff ff       	callq  400e30 <exit@plt>
  400fc7:	48 8d 35 b0 21 00 00 	lea    0x21b0(%rip),%rsi        # 40317e <_IO_stdin_used+0x1ae>
  400fce:	bf 01 00 00 00       	mov    $0x1,%edi
  400fd3:	b8 00 00 00 00       	mov    $0x0,%eax
  400fd8:	e8 03 fe ff ff       	callq  400de0 <__printf_chk@plt>
  400fdd:	48 8d 3d 7c 20 00 00 	lea    0x207c(%rip),%rdi        # 403060 <_IO_stdin_used+0x90>
  400fe4:	e8 d7 fc ff ff       	callq  400cc0 <puts@plt>
  400fe9:	48 8d 3d 98 20 00 00 	lea    0x2098(%rip),%rdi        # 403088 <_IO_stdin_used+0xb8>
  400ff0:	e8 cb fc ff ff       	callq  400cc0 <puts@plt>
  400ff5:	48 8d 3d a0 21 00 00 	lea    0x21a0(%rip),%rdi        # 40319c <_IO_stdin_used+0x1cc>
  400ffc:	e8 bf fc ff ff       	callq  400cc0 <puts@plt>
  401001:	eb ba                	jmp    400fbd <usage+0x56>

0000000000401003 <initialize_target>:
  401003:	55                   	push   %rbp
  401004:	53                   	push   %rbx
  401005:	48 81 ec 18 21 00 00 	sub    $0x2118,%rsp
  40100c:	89 f5                	mov    %esi,%ebp
  40100e:	64 48 8b 04 25 28 00 	mov    %fs:0x28,%rax
  401015:	00 00 
  401017:	48 89 84 24 08 21 00 	mov    %rax,0x2108(%rsp)
  40101e:	00 
  40101f:	31 c0                	xor    %eax,%eax
  401021:	89 3d d1 44 20 00    	mov    %edi,0x2044d1(%rip)        # 6054f8 <check_level>
  401027:	8b 3d 03 41 20 00    	mov    0x204103(%rip),%edi        # 605130 <target_id>
  40102d:	e8 f5 1e 00 00       	callq  402f27 <gencookie>
  401032:	89 05 cc 44 20 00    	mov    %eax,0x2044cc(%rip)        # 605504 <cookie>
  401038:	89 c7                	mov    %eax,%edi
  40103a:	e8 e8 1e 00 00       	callq  402f27 <gencookie>
  40103f:	89 05 bb 44 20 00    	mov    %eax,0x2044bb(%rip)        # 605500 <authkey>
  401045:	8b 05 e5 40 20 00    	mov    0x2040e5(%rip),%eax        # 605130 <target_id>
  40104b:	8d 78 01             	lea    0x1(%rax),%edi
  40104e:	e8 3d fc ff ff       	callq  400c90 <srandom@plt>
  401053:	e8 48 fd ff ff       	callq  400da0 <random@plt>
  401058:	89 c7                	mov    %eax,%edi
  40105a:	e8 ec 02 00 00       	callq  40134b <scramble>
  40105f:	89 c3                	mov    %eax,%ebx
  401061:	85 ed                	test   %ebp,%ebp
  401063:	75 54                	jne    4010b9 <initialize_target+0xb6>
  401065:	b8 00 00 00 00       	mov    $0x0,%eax
  40106a:	01 d8                	add    %ebx,%eax
  40106c:	0f b7 c0             	movzwl %ax,%eax
  40106f:	8d 04 c5 00 01 00 00 	lea    0x100(,%rax,8),%eax
  401076:	89 c0                	mov    %eax,%eax
  401078:	48 89 05 01 44 20 00 	mov    %rax,0x204401(%rip)        # 605480 <buf_offset>
  40107f:	c6 05 a2 50 20 00 72 	movb   $0x72,0x2050a2(%rip)        # 606128 <target_prefix>
  401086:	83 3d fb 43 20 00 00 	cmpl   $0x0,0x2043fb(%rip)        # 605488 <notify>
  40108d:	74 09                	je     401098 <initialize_target+0x95>
  40108f:	83 3d 72 44 20 00 00 	cmpl   $0x0,0x204472(%rip)        # 605508 <is_checker>
  401096:	74 39                	je     4010d1 <initialize_target+0xce>
  401098:	48 8b 84 24 08 21 00 	mov    0x2108(%rsp),%rax
  40109f:	00 
  4010a0:	64 48 33 04 25 28 00 	xor    %fs:0x28,%rax
  4010a7:	00 00 
  4010a9:	0f 85 ac 00 00 00    	jne    40115b <initialize_target+0x158>
  4010af:	48 81 c4 18 21 00 00 	add    $0x2118,%rsp
  4010b6:	5b                   	pop    %rbx
  4010b7:	5d                   	pop    %rbp
  4010b8:	c3                   	retq   
  4010b9:	bf 00 00 00 00       	mov    $0x0,%edi
  4010be:	e8 cd fc ff ff       	callq  400d90 <time@plt>
  4010c3:	89 c7                	mov    %eax,%edi
  4010c5:	e8 c6 fb ff ff       	callq  400c90 <srandom@plt>
  4010ca:	e8 d1 fc ff ff       	callq  400da0 <random@plt>
  4010cf:	eb 99                	jmp    40106a <initialize_target+0x67>
  4010d1:	48 89 e7             	mov    %rsp,%rdi
  4010d4:	be 00 01 00 00       	mov    $0x100,%esi
  4010d9:	e8 42 fd ff ff       	callq  400e20 <gethostname@plt>
  4010de:	89 c3                	mov    %eax,%ebx
  4010e0:	85 c0                	test   %eax,%eax
  4010e2:	75 24                	jne    401108 <initialize_target+0x105>
  4010e4:	48 63 c3             	movslq %ebx,%rax
  4010e7:	48 8d 15 72 40 20 00 	lea    0x204072(%rip),%rdx        # 605160 <host_table>
  4010ee:	48 8b 3c c2          	mov    (%rdx,%rax,8),%rdi
  4010f2:	48 85 ff             	test   %rdi,%rdi
  4010f5:	74 27                	je     40111e <initialize_target+0x11b>
  4010f7:	48 89 e6             	mov    %rsp,%rsi
  4010fa:	e8 71 fb ff ff       	callq  400c70 <strcasecmp@plt>
  4010ff:	85 c0                	test   %eax,%eax
  401101:	74 1b                	je     40111e <initialize_target+0x11b>
  401103:	83 c3 01             	add    $0x1,%ebx
  401106:	eb dc                	jmp    4010e4 <initialize_target+0xe1>
  401108:	48 8d 3d a9 1f 00 00 	lea    0x1fa9(%rip),%rdi        # 4030b8 <_IO_stdin_used+0xe8>
  40110f:	e8 ac fb ff ff       	callq  400cc0 <puts@plt>
  401114:	bf 08 00 00 00       	mov    $0x8,%edi
  401119:	e8 12 fd ff ff       	callq  400e30 <exit@plt>
  40111e:	48 8d bc 24 00 01 00 	lea    0x100(%rsp),%rdi
  401125:	00 
  401126:	e8 2c 1b 00 00       	callq  402c57 <init_driver>
  40112b:	85 c0                	test   %eax,%eax
  40112d:	0f 89 65 ff ff ff    	jns    401098 <initialize_target+0x95>
  401133:	48 8d 94 24 00 01 00 	lea    0x100(%rsp),%rdx
  40113a:	00 
  40113b:	48 8d 35 ae 1f 00 00 	lea    0x1fae(%rip),%rsi        # 4030f0 <_IO_stdin_used+0x120>
  401142:	bf 01 00 00 00       	mov    $0x1,%edi
  401147:	b8 00 00 00 00       	mov    $0x0,%eax
  40114c:	e8 8f fc ff ff       	callq  400de0 <__printf_chk@plt>
  401151:	bf 08 00 00 00       	mov    $0x8,%edi
  401156:	e8 d5 fc ff ff       	callq  400e30 <exit@plt>
  40115b:	e8 80 fb ff ff       	callq  400ce0 <__stack_chk_fail@plt>

0000000000401160 <main>:
  401160:	41 56                	push   %r14
  401162:	41 55                	push   %r13
  401164:	41 54                	push   %r12
  401166:	55                   	push   %rbp
  401167:	53                   	push   %rbx
  401168:	41 89 fc             	mov    %edi,%r12d
  40116b:	48 89 f3             	mov    %rsi,%rbx
  40116e:	48 c7 c6 5e 1f 40 00 	mov    $0x401f5e,%rsi
  401175:	bf 0b 00 00 00       	mov    $0xb,%edi
  40117a:	e8 c1 fb ff ff       	callq  400d40 <signal@plt>
  40117f:	48 c7 c6 0a 1f 40 00 	mov    $0x401f0a,%rsi
  401186:	bf 07 00 00 00       	mov    $0x7,%edi
  40118b:	e8 b0 fb ff ff       	callq  400d40 <signal@plt>
  401190:	48 c7 c6 b2 1f 40 00 	mov    $0x401fb2,%rsi
  401197:	bf 04 00 00 00       	mov    $0x4,%edi
  40119c:	e8 9f fb ff ff       	callq  400d40 <signal@plt>
  4011a1:	83 3d 60 43 20 00 00 	cmpl   $0x0,0x204360(%rip)        # 605508 <is_checker>
  4011a8:	75 26                	jne    4011d0 <main+0x70>
  4011aa:	48 8d 2d 04 20 00 00 	lea    0x2004(%rip),%rbp        # 4031b5 <_IO_stdin_used+0x1e5>
  4011b1:	48 8b 05 e8 42 20 00 	mov    0x2042e8(%rip),%rax        # 6054a0 <stdin@@GLIBC_2.2.5>
  4011b8:	48 89 05 31 43 20 00 	mov    %rax,0x204331(%rip)        # 6054f0 <infile>
  4011bf:	41 bd 00 00 00 00    	mov    $0x0,%r13d
  4011c5:	41 be 00 00 00 00    	mov    $0x0,%r14d
  4011cb:	e9 8d 00 00 00       	jmpq   40125d <main+0xfd>
  4011d0:	48 c7 c6 06 20 40 00 	mov    $0x402006,%rsi
  4011d7:	bf 0e 00 00 00       	mov    $0xe,%edi
  4011dc:	e8 5f fb ff ff       	callq  400d40 <signal@plt>
  4011e1:	bf 05 00 00 00       	mov    $0x5,%edi
  4011e6:	e8 25 fb ff ff       	callq  400d10 <alarm@plt>
  4011eb:	48 8d 2d c8 1f 00 00 	lea    0x1fc8(%rip),%rbp        # 4031ba <_IO_stdin_used+0x1ea>
  4011f2:	eb bd                	jmp    4011b1 <main+0x51>
  4011f4:	48 8b 3b             	mov    (%rbx),%rdi
  4011f7:	e8 6b fd ff ff       	callq  400f67 <usage>
  4011fc:	48 8d 35 4c 22 00 00 	lea    0x224c(%rip),%rsi        # 40344f <_IO_stdin_used+0x47f>
  401203:	48 8b 3d 9e 42 20 00 	mov    0x20429e(%rip),%rdi        # 6054a8 <optarg@@GLIBC_2.2.5>
  40120a:	e8 e1 fb ff ff       	callq  400df0 <fopen@plt>
  40120f:	48 89 05 da 42 20 00 	mov    %rax,0x2042da(%rip)        # 6054f0 <infile>
  401216:	48 85 c0             	test   %rax,%rax
  401219:	75 42                	jne    40125d <main+0xfd>
  40121b:	48 8b 0d 86 42 20 00 	mov    0x204286(%rip),%rcx        # 6054a8 <optarg@@GLIBC_2.2.5>
  401222:	48 8d 15 99 1f 00 00 	lea    0x1f99(%rip),%rdx        # 4031c2 <_IO_stdin_used+0x1f2>
  401229:	be 01 00 00 00       	mov    $0x1,%esi
  40122e:	48 8b 3d 8b 42 20 00 	mov    0x20428b(%rip),%rdi        # 6054c0 <stderr@@GLIBC_2.2.5>
  401235:	e8 16 fc ff ff       	callq  400e50 <__fprintf_chk@plt>
  40123a:	b8 01 00 00 00       	mov    $0x1,%eax
  40123f:	e9 d9 00 00 00       	jmpq   40131d <main+0x1bd>
  401244:	ba 10 00 00 00       	mov    $0x10,%edx
  401249:	be 00 00 00 00       	mov    $0x0,%esi
  40124e:	48 8b 3d 53 42 20 00 	mov    0x204253(%rip),%rdi        # 6054a8 <optarg@@GLIBC_2.2.5>
  401255:	e8 b6 fb ff ff       	callq  400e10 <strtoul@plt>
  40125a:	41 89 c6             	mov    %eax,%r14d
  40125d:	48 89 ea             	mov    %rbp,%rdx
  401260:	48 89 de             	mov    %rbx,%rsi
  401263:	44 89 e7             	mov    %r12d,%edi
  401266:	e8 95 fb ff ff       	callq  400e00 <getopt@plt>
  40126b:	3c ff                	cmp    $0xff,%al
  40126d:	74 62                	je     4012d1 <main+0x171>
  40126f:	0f be d0             	movsbl %al,%edx
  401272:	83 e8 61             	sub    $0x61,%eax
  401275:	3c 10                	cmp    $0x10,%al
  401277:	77 3a                	ja     4012b3 <main+0x153>
  401279:	0f b6 c0             	movzbl %al,%eax
  40127c:	48 8d 0d 7d 1f 00 00 	lea    0x1f7d(%rip),%rcx        # 403200 <_IO_stdin_used+0x230>
  401283:	48 63 04 81          	movslq (%rcx,%rax,4),%rax
  401287:	48 01 c8             	add    %rcx,%rax
  40128a:	ff e0                	jmpq   *%rax
  40128c:	ba 0a 00 00 00       	mov    $0xa,%edx
  401291:	be 00 00 00 00       	mov    $0x0,%esi
  401296:	48 8b 3d 0b 42 20 00 	mov    0x20420b(%rip),%rdi        # 6054a8 <optarg@@GLIBC_2.2.5>
  40129d:	e8 ce fa ff ff       	callq  400d70 <strtol@plt>
  4012a2:	41 89 c5             	mov    %eax,%r13d
  4012a5:	eb b6                	jmp    40125d <main+0xfd>
  4012a7:	c7 05 d7 41 20 00 00 	movl   $0x0,0x2041d7(%rip)        # 605488 <notify>
  4012ae:	00 00 00 
  4012b1:	eb aa                	jmp    40125d <main+0xfd>
  4012b3:	48 8d 35 25 1f 00 00 	lea    0x1f25(%rip),%rsi        # 4031df <_IO_stdin_used+0x20f>
  4012ba:	bf 01 00 00 00       	mov    $0x1,%edi
  4012bf:	b8 00 00 00 00       	mov    $0x0,%eax
  4012c4:	e8 17 fb ff ff       	callq  400de0 <__printf_chk@plt>
  4012c9:	48 8b 3b             	mov    (%rbx),%rdi
  4012cc:	e8 96 fc ff ff       	callq  400f67 <usage>
  4012d1:	be 01 00 00 00       	mov    $0x1,%esi
  4012d6:	44 89 ef             	mov    %r13d,%edi
  4012d9:	e8 25 fd ff ff       	callq  401003 <initialize_target>
  4012de:	83 3d 23 42 20 00 00 	cmpl   $0x0,0x204223(%rip)        # 605508 <is_checker>
  4012e5:	74 09                	je     4012f0 <main+0x190>
  4012e7:	44 39 35 12 42 20 00 	cmp    %r14d,0x204212(%rip)        # 605500 <authkey>
  4012ee:	75 36                	jne    401326 <main+0x1c6>
  4012f0:	8b 15 0e 42 20 00    	mov    0x20420e(%rip),%edx        # 605504 <cookie>
  4012f6:	48 8d 35 f5 1e 00 00 	lea    0x1ef5(%rip),%rsi        # 4031f2 <_IO_stdin_used+0x222>
  4012fd:	bf 01 00 00 00       	mov    $0x1,%edi
  401302:	b8 00 00 00 00       	mov    $0x0,%eax
  401307:	e8 d4 fa ff ff       	callq  400de0 <__printf_chk@plt>
  40130c:	48 8b 3d 6d 41 20 00 	mov    0x20416d(%rip),%rdi        # 605480 <buf_offset>
  401313:	e8 45 0d 00 00       	callq  40205d <launch>
  401318:	b8 00 00 00 00       	mov    $0x0,%eax
  40131d:	5b                   	pop    %rbx
  40131e:	5d                   	pop    %rbp
  40131f:	41 5c                	pop    %r12
  401321:	41 5d                	pop    %r13
  401323:	41 5e                	pop    %r14
  401325:	c3                   	retq   
  401326:	44 89 f2             	mov    %r14d,%edx
  401329:	48 8d 35 e8 1d 00 00 	lea    0x1de8(%rip),%rsi        # 403118 <_IO_stdin_used+0x148>
  401330:	bf 01 00 00 00       	mov    $0x1,%edi
  401335:	b8 00 00 00 00       	mov    $0x0,%eax
  40133a:	e8 a1 fa ff ff       	callq  400de0 <__printf_chk@plt>
  40133f:	b8 00 00 00 00       	mov    $0x0,%eax
  401344:	e8 21 08 00 00       	callq  401b6a <check_fail>
  401349:	eb a5                	jmp    4012f0 <main+0x190>

000000000040134b <scramble>:
  40134b:	48 83 ec 38          	sub    $0x38,%rsp
  40134f:	64 48 8b 04 25 28 00 	mov    %fs:0x28,%rax
  401356:	00 00 
  401358:	48 89 44 24 28       	mov    %rax,0x28(%rsp)
  40135d:	31 c0                	xor    %eax,%eax
  40135f:	eb 10                	jmp    401371 <scramble+0x26>
  401361:	69 d0 bf 5d 00 00    	imul   $0x5dbf,%eax,%edx
  401367:	01 fa                	add    %edi,%edx
  401369:	89 c1                	mov    %eax,%ecx
  40136b:	89 14 8c             	mov    %edx,(%rsp,%rcx,4)
  40136e:	83 c0 01             	add    $0x1,%eax
  401371:	83 f8 09             	cmp    $0x9,%eax
  401374:	76 eb                	jbe    401361 <scramble+0x16>
  401376:	8b 44 24 20          	mov    0x20(%rsp),%eax
  40137a:	69 c0 a1 12 00 00    	imul   $0x12a1,%eax,%eax
  401380:	89 44 24 20          	mov    %eax,0x20(%rsp)
  401384:	8b 44 24 04          	mov    0x4(%rsp),%eax
  401388:	69 c0 23 77 00 00    	imul   $0x7723,%eax,%eax
  40138e:	89 44 24 04          	mov    %eax,0x4(%rsp)
  401392:	8b 44 24 14          	mov    0x14(%rsp),%eax
  401396:	69 c0 e9 7f 00 00    	imul   $0x7fe9,%eax,%eax
  40139c:	89 44 24 14          	mov    %eax,0x14(%rsp)
  4013a0:	8b 44 24 20          	mov    0x20(%rsp),%eax
  4013a4:	69 c0 98 d9 00 00    	imul   $0xd998,%eax,%eax
  4013aa:	89 44 24 20          	mov    %eax,0x20(%rsp)
  4013ae:	8b 44 24 1c          	mov    0x1c(%rsp),%eax
  4013b2:	69 c0 dc 3b 00 00    	imul   $0x3bdc,%eax,%eax
  4013b8:	89 44 24 1c          	mov    %eax,0x1c(%rsp)
  4013bc:	8b 44 24 08          	mov    0x8(%rsp),%eax
  4013c0:	69 c0 25 65 00 00    	imul   $0x6525,%eax,%eax
  4013c6:	89 44 24 08          	mov    %eax,0x8(%rsp)
  4013ca:	8b 04 24             	mov    (%rsp),%eax
  4013cd:	69 c0 25 4c 00 00    	imul   $0x4c25,%eax,%eax
  4013d3:	89 04 24             	mov    %eax,(%rsp)
  4013d6:	8b 44 24 08          	mov    0x8(%rsp),%eax
  4013da:	69 c0 69 e9 00 00    	imul   $0xe969,%eax,%eax
  4013e0:	89 44 24 08          	mov    %eax,0x8(%rsp)
  4013e4:	8b 44 24 0c          	mov    0xc(%rsp),%eax
  4013e8:	69 c0 31 c2 00 00    	imul   $0xc231,%eax,%eax
  4013ee:	89 44 24 0c          	mov    %eax,0xc(%rsp)
  4013f2:	8b 44 24 20          	mov    0x20(%rsp),%eax
  4013f6:	69 c0 bf 9c 00 00    	imul   $0x9cbf,%eax,%eax
  4013fc:	89 44 24 20          	mov    %eax,0x20(%rsp)
  401400:	8b 44 24 20          	mov    0x20(%rsp),%eax
  401404:	69 c0 53 af 00 00    	imul   $0xaf53,%eax,%eax
  40140a:	89 44 24 20          	mov    %eax,0x20(%rsp)
  40140e:	8b 44 24 0c          	mov    0xc(%rsp),%eax
  401412:	69 c0 87 0f 00 00    	imul   $0xf87,%eax,%eax
  401418:	89 44 24 0c          	mov    %eax,0xc(%rsp)
  40141c:	8b 44 24 08          	mov    0x8(%rsp),%eax
  401420:	69 c0 57 2e 00 00    	imul   $0x2e57,%eax,%eax
  401426:	89 44 24 08          	mov    %eax,0x8(%rsp)
  40142a:	8b 44 24 20          	mov    0x20(%rsp),%eax
  40142e:	69 c0 e7 c6 00 00    	imul   $0xc6e7,%eax,%eax
  401434:	89 44 24 20          	mov    %eax,0x20(%rsp)
  401438:	8b 44 24 20          	mov    0x20(%rsp),%eax
  40143c:	69 c0 e1 1d 00 00    	imul   $0x1de1,%eax,%eax
  401442:	89 44 24 20          	mov    %eax,0x20(%rsp)
  401446:	8b 44 24 20          	mov    0x20(%rsp),%eax
  40144a:	69 c0 1a ce 00 00    	imul   $0xce1a,%eax,%eax
  401450:	89 44 24 20          	mov    %eax,0x20(%rsp)
  401454:	8b 44 24 24          	mov    0x24(%rsp),%eax
  401458:	69 c0 08 11 00 00    	imul   $0x1108,%eax,%eax
  40145e:	89 44 24 24          	mov    %eax,0x24(%rsp)
  401462:	8b 44 24 20          	mov    0x20(%rsp),%eax
  401466:	69 c0 7a 1d 00 00    	imul   $0x1d7a,%eax,%eax
  40146c:	89 44 24 20          	mov    %eax,0x20(%rsp)
  401470:	8b 44 24 08          	mov    0x8(%rsp),%eax
  401474:	69 c0 87 96 00 00    	imul   $0x9687,%eax,%eax
  40147a:	89 44 24 08          	mov    %eax,0x8(%rsp)
  40147e:	8b 44 24 24          	mov    0x24(%rsp),%eax
  401482:	69 c0 1e fb 00 00    	imul   $0xfb1e,%eax,%eax
  401488:	89 44 24 24          	mov    %eax,0x24(%rsp)
  40148c:	8b 44 24 14          	mov    0x14(%rsp),%eax
  401490:	69 c0 71 c8 00 00    	imul   $0xc871,%eax,%eax
  401496:	89 44 24 14          	mov    %eax,0x14(%rsp)
  40149a:	8b 44 24 24          	mov    0x24(%rsp),%eax
  40149e:	69 c0 07 6a 00 00    	imul   $0x6a07,%eax,%eax
  4014a4:	89 44 24 24          	mov    %eax,0x24(%rsp)
  4014a8:	8b 44 24 0c          	mov    0xc(%rsp),%eax
  4014ac:	69 c0 c3 44 00 00    	imul   $0x44c3,%eax,%eax
  4014b2:	89 44 24 0c          	mov    %eax,0xc(%rsp)
  4014b6:	8b 04 24             	mov    (%rsp),%eax
  4014b9:	69 c0 95 91 00 00    	imul   $0x9195,%eax,%eax
  4014bf:	89 04 24             	mov    %eax,(%rsp)
  4014c2:	8b 44 24 10          	mov    0x10(%rsp),%eax
  4014c6:	69 c0 38 c2 00 00    	imul   $0xc238,%eax,%eax
  4014cc:	89 44 24 10          	mov    %eax,0x10(%rsp)
  4014d0:	8b 04 24             	mov    (%rsp),%eax
  4014d3:	69 c0 f7 0f 00 00    	imul   $0xff7,%eax,%eax
  4014d9:	89 04 24             	mov    %eax,(%rsp)
  4014dc:	8b 04 24             	mov    (%rsp),%eax
  4014df:	69 c0 2c fd 00 00    	imul   $0xfd2c,%eax,%eax
  4014e5:	89 04 24             	mov    %eax,(%rsp)
  4014e8:	8b 44 24 14          	mov    0x14(%rsp),%eax
  4014ec:	69 c0 df 96 00 00    	imul   $0x96df,%eax,%eax
  4014f2:	89 44 24 14          	mov    %eax,0x14(%rsp)
  4014f6:	8b 44 24 18          	mov    0x18(%rsp),%eax
  4014fa:	69 c0 6b d7 00 00    	imul   $0xd76b,%eax,%eax
  401500:	89 44 24 18          	mov    %eax,0x18(%rsp)
  401504:	8b 44 24 10          	mov    0x10(%rsp),%eax
  401508:	69 c0 dd 9b 00 00    	imul   $0x9bdd,%eax,%eax
  40150e:	89 44 24 10          	mov    %eax,0x10(%rsp)
  401512:	8b 44 24 24          	mov    0x24(%rsp),%eax
  401516:	69 c0 bd f7 00 00    	imul   $0xf7bd,%eax,%eax
  40151c:	89 44 24 24          	mov    %eax,0x24(%rsp)
  401520:	8b 44 24 1c          	mov    0x1c(%rsp),%eax
  401524:	69 c0 cf 25 00 00    	imul   $0x25cf,%eax,%eax
  40152a:	89 44 24 1c          	mov    %eax,0x1c(%rsp)
  40152e:	8b 44 24 1c          	mov    0x1c(%rsp),%eax
  401532:	69 c0 35 af 00 00    	imul   $0xaf35,%eax,%eax
  401538:	89 44 24 1c          	mov    %eax,0x1c(%rsp)
  40153c:	8b 44 24 20          	mov    0x20(%rsp),%eax
  401540:	69 c0 b7 99 00 00    	imul   $0x99b7,%eax,%eax
  401546:	89 44 24 20          	mov    %eax,0x20(%rsp)
  40154a:	8b 44 24 04          	mov    0x4(%rsp),%eax
  40154e:	69 c0 5b 3a 00 00    	imul   $0x3a5b,%eax,%eax
  401554:	89 44 24 04          	mov    %eax,0x4(%rsp)
  401558:	8b 04 24             	mov    (%rsp),%eax
  40155b:	69 c0 1f 18 00 00    	imul   $0x181f,%eax,%eax
  401561:	89 04 24             	mov    %eax,(%rsp)
  401564:	8b 04 24             	mov    (%rsp),%eax
  401567:	69 c0 18 f5 00 00    	imul   $0xf518,%eax,%eax
  40156d:	89 04 24             	mov    %eax,(%rsp)
  401570:	8b 44 24 18          	mov    0x18(%rsp),%eax
  401574:	69 c0 63 17 00 00    	imul   $0x1763,%eax,%eax
  40157a:	89 44 24 18          	mov    %eax,0x18(%rsp)
  40157e:	8b 44 24 10          	mov    0x10(%rsp),%eax
  401582:	69 c0 97 d5 00 00    	imul   $0xd597,%eax,%eax
  401588:	89 44 24 10          	mov    %eax,0x10(%rsp)
  40158c:	8b 44 24 10          	mov    0x10(%rsp),%eax
  401590:	69 c0 d0 40 00 00    	imul   $0x40d0,%eax,%eax
  401596:	89 44 24 10          	mov    %eax,0x10(%rsp)
  40159a:	8b 44 24 24          	mov    0x24(%rsp),%eax
  40159e:	69 c0 4c d7 00 00    	imul   $0xd74c,%eax,%eax
  4015a4:	89 44 24 24          	mov    %eax,0x24(%rsp)
  4015a8:	8b 44 24 08          	mov    0x8(%rsp),%eax
  4015ac:	69 c0 5c 09 00 00    	imul   $0x95c,%eax,%eax
  4015b2:	89 44 24 08          	mov    %eax,0x8(%rsp)
  4015b6:	8b 44 24 04          	mov    0x4(%rsp),%eax
  4015ba:	69 c0 46 70 00 00    	imul   $0x7046,%eax,%eax
  4015c0:	89 44 24 04          	mov    %eax,0x4(%rsp)
  4015c4:	8b 44 24 0c          	mov    0xc(%rsp),%eax
  4015c8:	69 c0 fb ff 00 00    	imul   $0xfffb,%eax,%eax
  4015ce:	89 44 24 0c          	mov    %eax,0xc(%rsp)
  4015d2:	8b 44 24 0c          	mov    0xc(%rsp),%eax
  4015d6:	69 c0 02 fe 00 00    	imul   $0xfe02,%eax,%eax
  4015dc:	89 44 24 0c          	mov    %eax,0xc(%rsp)
  4015e0:	8b 44 24 24          	mov    0x24(%rsp),%eax
  4015e4:	69 c0 fd 3c 00 00    	imul   $0x3cfd,%eax,%eax
  4015ea:	89 44 24 24          	mov    %eax,0x24(%rsp)
  4015ee:	8b 44 24 18          	mov    0x18(%rsp),%eax
  4015f2:	69 c0 d0 05 00 00    	imul   $0x5d0,%eax,%eax
  4015f8:	89 44 24 18          	mov    %eax,0x18(%rsp)
  4015fc:	8b 44 24 14          	mov    0x14(%rsp),%eax
  401600:	69 c0 84 fe 00 00    	imul   $0xfe84,%eax,%eax
  401606:	89 44 24 14          	mov    %eax,0x14(%rsp)
  40160a:	8b 44 24 08          	mov    0x8(%rsp),%eax
  40160e:	69 c0 15 a6 00 00    	imul   $0xa615,%eax,%eax
  401614:	89 44 24 08          	mov    %eax,0x8(%rsp)
  401618:	8b 44 24 10          	mov    0x10(%rsp),%eax
  40161c:	69 c0 c1 fa 00 00    	imul   $0xfac1,%eax,%eax
  401622:	89 44 24 10          	mov    %eax,0x10(%rsp)
  401626:	8b 44 24 08          	mov    0x8(%rsp),%eax
  40162a:	69 c0 11 2d 00 00    	imul   $0x2d11,%eax,%eax
  401630:	89 44 24 08          	mov    %eax,0x8(%rsp)
  401634:	8b 44 24 10          	mov    0x10(%rsp),%eax
  401638:	69 c0 3d e3 00 00    	imul   $0xe33d,%eax,%eax
  40163e:	89 44 24 10          	mov    %eax,0x10(%rsp)
  401642:	8b 44 24 20          	mov    0x20(%rsp),%eax
  401646:	69 c0 07 95 00 00    	imul   $0x9507,%eax,%eax
  40164c:	89 44 24 20          	mov    %eax,0x20(%rsp)
  401650:	8b 44 24 18          	mov    0x18(%rsp),%eax
  401654:	69 c0 06 5c 00 00    	imul   $0x5c06,%eax,%eax
  40165a:	89 44 24 18          	mov    %eax,0x18(%rsp)
  40165e:	8b 04 24             	mov    (%rsp),%eax
  401661:	69 c0 99 a3 00 00    	imul   $0xa399,%eax,%eax
  401667:	89 04 24             	mov    %eax,(%rsp)
  40166a:	8b 44 24 0c          	mov    0xc(%rsp),%eax
  40166e:	69 c0 6e 02 00 00    	imul   $0x26e,%eax,%eax
  401674:	89 44 24 0c          	mov    %eax,0xc(%rsp)
  401678:	8b 44 24 20          	mov    0x20(%rsp),%eax
  40167c:	69 c0 9e ed 00 00    	imul   $0xed9e,%eax,%eax
  401682:	89 44 24 20          	mov    %eax,0x20(%rsp)
  401686:	8b 04 24             	mov    (%rsp),%eax
  401689:	69 c0 5e 4f 00 00    	imul   $0x4f5e,%eax,%eax
  40168f:	89 04 24             	mov    %eax,(%rsp)
  401692:	8b 44 24 14          	mov    0x14(%rsp),%eax
  401696:	69 c0 06 ac 00 00    	imul   $0xac06,%eax,%eax
  40169c:	89 44 24 14          	mov    %eax,0x14(%rsp)
  4016a0:	8b 44 24 08          	mov    0x8(%rsp),%eax
  4016a4:	69 c0 95 a5 00 00    	imul   $0xa595,%eax,%eax
  4016aa:	89 44 24 08          	mov    %eax,0x8(%rsp)
  4016ae:	8b 44 24 18          	mov    0x18(%rsp),%eax
  4016b2:	69 c0 32 eb 00 00    	imul   $0xeb32,%eax,%eax
  4016b8:	89 44 24 18          	mov    %eax,0x18(%rsp)
  4016bc:	8b 44 24 14          	mov    0x14(%rsp),%eax
  4016c0:	69 c0 c7 9f 00 00    	imul   $0x9fc7,%eax,%eax
  4016c6:	89 44 24 14          	mov    %eax,0x14(%rsp)
  4016ca:	8b 44 24 24          	mov    0x24(%rsp),%eax
  4016ce:	69 c0 5f 45 00 00    	imul   $0x455f,%eax,%eax
  4016d4:	89 44 24 24          	mov    %eax,0x24(%rsp)
  4016d8:	8b 44 24 20          	mov    0x20(%rsp),%eax
  4016dc:	69 c0 08 a6 00 00    	imul   $0xa608,%eax,%eax
  4016e2:	89 44 24 20          	mov    %eax,0x20(%rsp)
  4016e6:	8b 44 24 18          	mov    0x18(%rsp),%eax
  4016ea:	69 c0 87 36 00 00    	imul   $0x3687,%eax,%eax
  4016f0:	89 44 24 18          	mov    %eax,0x18(%rsp)
  4016f4:	8b 44 24 24          	mov    0x24(%rsp),%eax
  4016f8:	69 c0 e5 cb 00 00    	imul   $0xcbe5,%eax,%eax
  4016fe:	89 44 24 24          	mov    %eax,0x24(%rsp)
  401702:	8b 44 24 08          	mov    0x8(%rsp),%eax
  401706:	69 c0 aa b3 00 00    	imul   $0xb3aa,%eax,%eax
  40170c:	89 44 24 08          	mov    %eax,0x8(%rsp)
  401710:	8b 44 24 04          	mov    0x4(%rsp),%eax
  401714:	69 c0 c3 85 00 00    	imul   $0x85c3,%eax,%eax
  40171a:	89 44 24 04          	mov    %eax,0x4(%rsp)
  40171e:	8b 44 24 1c          	mov    0x1c(%rsp),%eax
  401722:	69 c0 c2 a9 00 00    	imul   $0xa9c2,%eax,%eax
  401728:	89 44 24 1c          	mov    %eax,0x1c(%rsp)
  40172c:	8b 44 24 14          	mov    0x14(%rsp),%eax
  401730:	69 c0 50 b3 00 00    	imul   $0xb350,%eax,%eax
  401736:	89 44 24 14          	mov    %eax,0x14(%rsp)
  40173a:	8b 44 24 08          	mov    0x8(%rsp),%eax
  40173e:	69 c0 9f 7e 00 00    	imul   $0x7e9f,%eax,%eax
  401744:	89 44 24 08          	mov    %eax,0x8(%rsp)
  401748:	8b 44 24 1c          	mov    0x1c(%rsp),%eax
  40174c:	69 c0 41 c8 00 00    	imul   $0xc841,%eax,%eax
  401752:	89 44 24 1c          	mov    %eax,0x1c(%rsp)
  401756:	8b 44 24 1c          	mov    0x1c(%rsp),%eax
  40175a:	69 c0 89 c1 00 00    	imul   $0xc189,%eax,%eax
  401760:	89 44 24 1c          	mov    %eax,0x1c(%rsp)
  401764:	8b 44 24 14          	mov    0x14(%rsp),%eax
  401768:	69 c0 21 ca 00 00    	imul   $0xca21,%eax,%eax
  40176e:	89 44 24 14          	mov    %eax,0x14(%rsp)
  401772:	8b 44 24 18          	mov    0x18(%rsp),%eax
  401776:	69 c0 f8 66 00 00    	imul   $0x66f8,%eax,%eax
  40177c:	89 44 24 18          	mov    %eax,0x18(%rsp)
  401780:	8b 44 24 0c          	mov    0xc(%rsp),%eax
  401784:	69 c0 97 17 00 00    	imul   $0x1797,%eax,%eax
  40178a:	89 44 24 0c          	mov    %eax,0xc(%rsp)
  40178e:	8b 44 24 08          	mov    0x8(%rsp),%eax
  401792:	69 c0 49 52 00 00    	imul   $0x5249,%eax,%eax
  401798:	89 44 24 08          	mov    %eax,0x8(%rsp)
  40179c:	8b 44 24 20          	mov    0x20(%rsp),%eax
  4017a0:	69 c0 2e 43 00 00    	imul   $0x432e,%eax,%eax
  4017a6:	89 44 24 20          	mov    %eax,0x20(%rsp)
  4017aa:	ba 00 00 00 00       	mov    $0x0,%edx
  4017af:	b8 00 00 00 00       	mov    $0x0,%eax
  4017b4:	eb 0a                	jmp    4017c0 <scramble+0x475>
  4017b6:	89 d1                	mov    %edx,%ecx
  4017b8:	8b 0c 8c             	mov    (%rsp,%rcx,4),%ecx
  4017bb:	01 c8                	add    %ecx,%eax
  4017bd:	83 c2 01             	add    $0x1,%edx
  4017c0:	83 fa 09             	cmp    $0x9,%edx
  4017c3:	76 f1                	jbe    4017b6 <scramble+0x46b>
  4017c5:	48 8b 74 24 28       	mov    0x28(%rsp),%rsi
  4017ca:	64 48 33 34 25 28 00 	xor    %fs:0x28,%rsi
  4017d1:	00 00 
  4017d3:	75 05                	jne    4017da <scramble+0x48f>
  4017d5:	48 83 c4 38          	add    $0x38,%rsp
  4017d9:	c3                   	retq   
  4017da:	e8 01 f5 ff ff       	callq  400ce0 <__stack_chk_fail@plt>

00000000004017df <getbuf>:
  4017df:	48 83 ec 38          	sub    $0x38,%rsp
  4017e3:	48 89 e7             	mov    %rsp,%rdi
  4017e6:	e8 b7 03 00 00       	callq  401ba2 <Gets>
  4017eb:	b8 01 00 00 00       	mov    $0x1,%eax
  4017f0:	48 83 c4 38          	add    $0x38,%rsp
  4017f4:	c3                   	retq   

00000000004017f5 <touch1>:
  4017f5:	48 83 ec 08          	sub    $0x8,%rsp
  4017f9:	c7 05 f9 3c 20 00 01 	movl   $0x1,0x203cf9(%rip)        # 6054fc <vlevel>
  401800:	00 00 00 
  401803:	48 8d 3d 96 1a 00 00 	lea    0x1a96(%rip),%rdi        # 4032a0 <_IO_stdin_used+0x2d0>
  40180a:	e8 b1 f4 ff ff       	callq  400cc0 <puts@plt>
  40180f:	bf 01 00 00 00       	mov    $0x1,%edi
  401814:	e8 f9 05 00 00       	callq  401e12 <validate>
  401819:	bf 00 00 00 00       	mov    $0x0,%edi
  40181e:	e8 0d f6 ff ff       	callq  400e30 <exit@plt>

0000000000401823 <touch2>:
  401823:	48 83 ec 08          	sub    $0x8,%rsp
  401827:	89 fa                	mov    %edi,%edx
  401829:	c7 05 c9 3c 20 00 02 	movl   $0x2,0x203cc9(%rip)        # 6054fc <vlevel>
  401830:	00 00 00 
  401833:	39 3d cb 3c 20 00    	cmp    %edi,0x203ccb(%rip)        # 605504 <cookie>
  401839:	74 2a                	je     401865 <touch2+0x42>
  40183b:	48 8d 35 ae 1a 00 00 	lea    0x1aae(%rip),%rsi        # 4032f0 <_IO_stdin_used+0x320>
  401842:	bf 01 00 00 00       	mov    $0x1,%edi
  401847:	b8 00 00 00 00       	mov    $0x0,%eax
  40184c:	e8 8f f5 ff ff       	callq  400de0 <__printf_chk@plt>
  401851:	bf 02 00 00 00       	mov    $0x2,%edi
  401856:	e8 87 06 00 00       	callq  401ee2 <fail>
  40185b:	bf 00 00 00 00       	mov    $0x0,%edi
  401860:	e8 cb f5 ff ff       	callq  400e30 <exit@plt>
  401865:	48 8d 35 5c 1a 00 00 	lea    0x1a5c(%rip),%rsi        # 4032c8 <_IO_stdin_used+0x2f8>
  40186c:	bf 01 00 00 00       	mov    $0x1,%edi
  401871:	b8 00 00 00 00       	mov    $0x0,%eax
  401876:	e8 65 f5 ff ff       	callq  400de0 <__printf_chk@plt>
  40187b:	bf 02 00 00 00       	mov    $0x2,%edi
  401880:	e8 8d 05 00 00       	callq  401e12 <validate>
  401885:	eb d4                	jmp    40185b <touch2+0x38>

0000000000401887 <hexmatch>:
  401887:	41 54                	push   %r12
  401889:	55                   	push   %rbp
  40188a:	53                   	push   %rbx
  40188b:	48 83 c4 80          	add    $0xffffffffffffff80,%rsp
  40188f:	89 fd                	mov    %edi,%ebp
  401891:	48 89 f3             	mov    %rsi,%rbx
  401894:	64 48 8b 04 25 28 00 	mov    %fs:0x28,%rax
  40189b:	00 00 
  40189d:	48 89 44 24 78       	mov    %rax,0x78(%rsp)
  4018a2:	31 c0                	xor    %eax,%eax
  4018a4:	e8 f7 f4 ff ff       	callq  400da0 <random@plt>
  4018a9:	48 89 c1             	mov    %rax,%rcx
  4018ac:	48 ba 0b d7 a3 70 3d 	movabs $0xa3d70a3d70a3d70b,%rdx
  4018b3:	0a d7 a3 
  4018b6:	48 f7 ea             	imul   %rdx
  4018b9:	48 01 ca             	add    %rcx,%rdx
  4018bc:	48 c1 fa 06          	sar    $0x6,%rdx
  4018c0:	48 89 c8             	mov    %rcx,%rax
  4018c3:	48 c1 f8 3f          	sar    $0x3f,%rax
  4018c7:	48 29 c2             	sub    %rax,%rdx
  4018ca:	48 8d 04 92          	lea    (%rdx,%rdx,4),%rax
  4018ce:	48 8d 14 80          	lea    (%rax,%rax,4),%rdx
  4018d2:	48 8d 04 95 00 00 00 	lea    0x0(,%rdx,4),%rax
  4018d9:	00 
  4018da:	48 29 c1             	sub    %rax,%rcx
  4018dd:	4c 8d 24 0c          	lea    (%rsp,%rcx,1),%r12
  4018e1:	41 89 e8             	mov    %ebp,%r8d
  4018e4:	48 8d 0d d2 19 00 00 	lea    0x19d2(%rip),%rcx        # 4032bd <_IO_stdin_used+0x2ed>
  4018eb:	48 c7 c2 ff ff ff ff 	mov    $0xffffffffffffffff,%rdx
  4018f2:	be 01 00 00 00       	mov    $0x1,%esi
  4018f7:	4c 89 e7             	mov    %r12,%rdi
  4018fa:	b8 00 00 00 00       	mov    $0x0,%eax
  4018ff:	e8 5c f5 ff ff       	callq  400e60 <__sprintf_chk@plt>
  401904:	ba 09 00 00 00       	mov    $0x9,%edx
  401909:	4c 89 e6             	mov    %r12,%rsi
  40190c:	48 89 df             	mov    %rbx,%rdi
  40190f:	e8 8c f3 ff ff       	callq  400ca0 <strncmp@plt>
  401914:	85 c0                	test   %eax,%eax
  401916:	0f 94 c0             	sete   %al
  401919:	48 8b 5c 24 78       	mov    0x78(%rsp),%rbx
  40191e:	64 48 33 1c 25 28 00 	xor    %fs:0x28,%rbx
  401925:	00 00 
  401927:	75 0c                	jne    401935 <hexmatch+0xae>
  401929:	0f b6 c0             	movzbl %al,%eax
  40192c:	48 83 ec 80          	sub    $0xffffffffffffff80,%rsp
  401930:	5b                   	pop    %rbx
  401931:	5d                   	pop    %rbp
  401932:	41 5c                	pop    %r12
  401934:	c3                   	retq   
  401935:	e8 a6 f3 ff ff       	callq  400ce0 <__stack_chk_fail@plt>

000000000040193a <touch3>:
  40193a:	53                   	push   %rbx
  40193b:	48 89 fb             	mov    %rdi,%rbx
  40193e:	c7 05 b4 3b 20 00 03 	movl   $0x3,0x203bb4(%rip)        # 6054fc <vlevel>
  401945:	00 00 00 
  401948:	48 89 fe             	mov    %rdi,%rsi
  40194b:	8b 3d b3 3b 20 00    	mov    0x203bb3(%rip),%edi        # 605504 <cookie>
  401951:	e8 31 ff ff ff       	callq  401887 <hexmatch>
  401956:	85 c0                	test   %eax,%eax
  401958:	74 2d                	je     401987 <touch3+0x4d>
  40195a:	48 89 da             	mov    %rbx,%rdx
  40195d:	48 8d 35 b4 19 00 00 	lea    0x19b4(%rip),%rsi        # 403318 <_IO_stdin_used+0x348>
  401964:	bf 01 00 00 00       	mov    $0x1,%edi
  401969:	b8 00 00 00 00       	mov    $0x0,%eax
  40196e:	e8 6d f4 ff ff       	callq  400de0 <__printf_chk@plt>
  401973:	bf 03 00 00 00       	mov    $0x3,%edi
  401978:	e8 95 04 00 00       	callq  401e12 <validate>
  40197d:	bf 00 00 00 00       	mov    $0x0,%edi
  401982:	e8 a9 f4 ff ff       	callq  400e30 <exit@plt>
  401987:	48 89 da             	mov    %rbx,%rdx
  40198a:	48 8d 35 af 19 00 00 	lea    0x19af(%rip),%rsi        # 403340 <_IO_stdin_used+0x370>
  401991:	bf 01 00 00 00       	mov    $0x1,%edi
  401996:	b8 00 00 00 00       	mov    $0x0,%eax
  40199b:	e8 40 f4 ff ff       	callq  400de0 <__printf_chk@plt>
  4019a0:	bf 03 00 00 00       	mov    $0x3,%edi
  4019a5:	e8 38 05 00 00       	callq  401ee2 <fail>
  4019aa:	eb d1                	jmp    40197d <touch3+0x43>

00000000004019ac <test>:
  4019ac:	48 83 ec 08          	sub    $0x8,%rsp
  4019b0:	b8 00 00 00 00       	mov    $0x0,%eax
  4019b5:	e8 25 fe ff ff       	callq  4017df <getbuf>
  4019ba:	89 c2                	mov    %eax,%edx
  4019bc:	48 8d 35 a5 19 00 00 	lea    0x19a5(%rip),%rsi        # 403368 <_IO_stdin_used+0x398>
  4019c3:	bf 01 00 00 00       	mov    $0x1,%edi
  4019c8:	b8 00 00 00 00       	mov    $0x0,%eax
  4019cd:	e8 0e f4 ff ff       	callq  400de0 <__printf_chk@plt>
  4019d2:	48 83 c4 08          	add    $0x8,%rsp
  4019d6:	c3                   	retq   

00000000004019d7 <start_farm>:
  4019d7:	b8 01 00 00 00       	mov    $0x1,%eax
  4019dc:	c3                   	retq   

00000000004019dd <setval_296>:
  4019dd:	c7 07 79 f5 58 90    	movl   $0x9058f579,(%rdi)
  4019e3:	c3                   	retq   

00000000004019e4 <setval_106>:
  4019e4:	c7 07 48 99 c7 c3    	movl   $0xc3c79948,(%rdi)
  4019ea:	c3                   	retq   

00000000004019eb <addval_404>:
  4019eb:	8d 87 d8 c3 c1 0d    	lea    0xdc1c3d8(%rdi),%eax
  4019f1:	c3                   	retq   

00000000004019f2 <getval_413>:
  4019f2:	b8 ed 58 90 c1       	mov    $0xc19058ed,%eax
  4019f7:	c3                   	retq   

00000000004019f8 <getval_321>:
  4019f8:	b8 48 09 c7 90       	mov    $0x90c70948,%eax
  4019fd:	c3                   	retq   

00000000004019fe <setval_362>:
  4019fe:	c7 07 48 89 c7 90    	movl   $0x90c78948,(%rdi)
  401a04:	c3                   	retq   

0000000000401a05 <setval_334>:
  401a05:	c7 07 48 89 c7 90    	movl   $0x90c78948,(%rdi)
  401a0b:	c3                   	retq   

0000000000401a0c <setval_430>:
  401a0c:	c7 07 58 90 90 c3    	movl   $0xc3909058,(%rdi)
  401a12:	c3                   	retq   

0000000000401a13 <mid_farm>:
  401a13:	b8 01 00 00 00       	mov    $0x1,%eax
  401a18:	c3                   	retq   

0000000000401a19 <add_xy>:
  401a19:	48 8d 04 37          	lea    (%rdi,%rsi,1),%rax
  401a1d:	c3                   	retq   

0000000000401a1e <addval_206>:
  401a1e:	8d 87 48 89 e0 90    	lea    -0x6f1f76b8(%rdi),%eax
  401a24:	c3                   	retq   

0000000000401a25 <getval_107>:
  401a25:	b8 81 c2 20 db       	mov    $0xdb20c281,%eax
  401a2a:	c3                   	retq   

0000000000401a2b <setval_281>:
  401a2b:	c7 07 3a 89 d1 c1    	movl   $0xc1d1893a,(%rdi)
  401a31:	c3                   	retq   

0000000000401a32 <addval_216>:
  401a32:	8d 87 48 89 e0 c3    	lea    -0x3c1f76b8(%rdi),%eax
  401a38:	c3                   	retq   

0000000000401a39 <setval_273>:
  401a39:	c7 07 c9 d1 20 d2    	movl   $0xd220d1c9,(%rdi)
  401a3f:	c3                   	retq   

0000000000401a40 <getval_173>:
  401a40:	b8 88 ce 84 c9       	mov    $0xc984ce88,%eax
  401a45:	c3                   	retq   

0000000000401a46 <getval_330>:
  401a46:	b8 89 ce a4 c9       	mov    $0xc9a4ce89,%eax
  401a4b:	c3                   	retq   

0000000000401a4c <getval_371>:
  401a4c:	b8 09 c2 20 c9       	mov    $0xc920c209,%eax
  401a51:	c3                   	retq   

0000000000401a52 <getval_320>:
  401a52:	b8 89 c2 00 db       	mov    $0xdb00c289,%eax
  401a57:	c3                   	retq   

0000000000401a58 <setval_378>:
  401a58:	c7 07 cd 88 d1 c3    	movl   $0xc3d188cd,(%rdi)
  401a5e:	c3                   	retq   

0000000000401a5f <addval_117>:
  401a5f:	8d 87 89 c2 c1 53    	lea    0x53c1c289(%rdi),%eax
  401a65:	c3                   	retq   

0000000000401a66 <setval_124>:
  401a66:	c7 07 8b ce 20 d2    	movl   $0xd220ce8b,(%rdi)
  401a6c:	c3                   	retq   

0000000000401a6d <addval_400>:
  401a6d:	8d 87 48 89 e0 c1    	lea    -0x3e1f76b8(%rdi),%eax
  401a73:	c3                   	retq   

0000000000401a74 <setval_337>:
  401a74:	c7 07 12 89 c2 c1    	movl   $0xc1c28912,(%rdi)
  401a7a:	c3                   	retq   

0000000000401a7b <addval_488>:
  401a7b:	8d 87 c7 48 09 e0    	lea    -0x1ff6b739(%rdi),%eax
  401a81:	c3                   	retq   

0000000000401a82 <setval_487>:
  401a82:	c7 07 4b f5 88 d1    	movl   $0xd188f54b,(%rdi)
  401a88:	c3                   	retq   

0000000000401a89 <addval_137>:
  401a89:	8d 87 89 ce 38 c9    	lea    -0x36c73177(%rdi),%eax
  401a8f:	c3                   	retq   

0000000000401a90 <addval_478>:
  401a90:	8d 87 48 89 e0 c1    	lea    -0x3e1f76b8(%rdi),%eax
  401a96:	c3                   	retq   

0000000000401a97 <getval_275>:
  401a97:	b8 89 c2 60 c9       	mov    $0xc960c289,%eax
  401a9c:	c3                   	retq   

0000000000401a9d <setval_396>:
  401a9d:	c7 07 48 89 e0 c2    	movl   $0xc2e08948,(%rdi)
  401aa3:	c3                   	retq   

0000000000401aa4 <getval_355>:
  401aa4:	b8 48 89 e0 c1       	mov    $0xc1e08948,%eax
  401aa9:	c3                   	retq   

0000000000401aaa <getval_462>:
  401aaa:	b8 89 d1 00 d2       	mov    $0xd200d189,%eax
  401aaf:	c3                   	retq   

0000000000401ab0 <addval_449>:
  401ab0:	8d 87 88 d1 20 c9    	lea    -0x36df2e78(%rdi),%eax
  401ab6:	c3                   	retq   

0000000000401ab7 <addval_376>:
  401ab7:	8d 87 89 d1 38 c9    	lea    -0x36c72e77(%rdi),%eax
  401abd:	c3                   	retq   

0000000000401abe <addval_266>:
  401abe:	8d 87 8b 89 ce 90    	lea    -0x6f317675(%rdi),%eax
  401ac4:	c3                   	retq   

0000000000401ac5 <setval_227>:
  401ac5:	c7 07 48 89 e0 c2    	movl   $0xc2e08948,(%rdi)
  401acb:	c3                   	retq   

0000000000401acc <setval_164>:
  401acc:	c7 07 89 ce 90 c7    	movl   $0xc790ce89,(%rdi)
  401ad2:	c3                   	retq   

0000000000401ad3 <addval_325>:
  401ad3:	8d 87 89 d1 08 c0    	lea    -0x3ff72e77(%rdi),%eax
  401ad9:	c3                   	retq   

0000000000401ada <setval_313>:
  401ada:	c7 07 99 ce 90 c3    	movl   $0xc390ce99,(%rdi)
  401ae0:	c3                   	retq   

0000000000401ae1 <getval_359>:
  401ae1:	b8 89 c2 84 db       	mov    $0xdb84c289,%eax
  401ae6:	c3                   	retq   

0000000000401ae7 <getval_268>:
  401ae7:	b8 89 c2 08 c9       	mov    $0xc908c289,%eax
  401aec:	c3                   	retq   

0000000000401aed <addval_444>:
  401aed:	8d 87 89 ce c2 26    	lea    0x26c2ce89(%rdi),%eax
  401af3:	c3                   	retq   

0000000000401af4 <end_farm>:
  401af4:	b8 01 00 00 00       	mov    $0x1,%eax
  401af9:	c3                   	retq   

0000000000401afa <save_char>:
  401afa:	8b 05 24 46 20 00    	mov    0x204624(%rip),%eax        # 606124 <gets_cnt>
  401b00:	3d ff 03 00 00       	cmp    $0x3ff,%eax
  401b05:	7f 4a                	jg     401b51 <save_char+0x57>
  401b07:	89 f9                	mov    %edi,%ecx
  401b09:	c0 e9 04             	shr    $0x4,%cl
  401b0c:	8d 14 40             	lea    (%rax,%rax,2),%edx
  401b0f:	4c 8d 05 7a 1b 00 00 	lea    0x1b7a(%rip),%r8        # 403690 <trans_char>
  401b16:	83 e1 0f             	and    $0xf,%ecx
  401b19:	45 0f b6 0c 08       	movzbl (%r8,%rcx,1),%r9d
  401b1e:	48 8d 0d fb 39 20 00 	lea    0x2039fb(%rip),%rcx        # 605520 <gets_buf>
  401b25:	48 63 f2             	movslq %edx,%rsi
  401b28:	44 88 0c 31          	mov    %r9b,(%rcx,%rsi,1)
  401b2c:	8d 72 01             	lea    0x1(%rdx),%esi
  401b2f:	83 e7 0f             	and    $0xf,%edi
  401b32:	41 0f b6 3c 38       	movzbl (%r8,%rdi,1),%edi
  401b37:	48 63 f6             	movslq %esi,%rsi
  401b3a:	40 88 3c 31          	mov    %dil,(%rcx,%rsi,1)
  401b3e:	83 c2 02             	add    $0x2,%edx
  401b41:	48 63 d2             	movslq %edx,%rdx
  401b44:	c6 04 11 20          	movb   $0x20,(%rcx,%rdx,1)
  401b48:	83 c0 01             	add    $0x1,%eax
  401b4b:	89 05 d3 45 20 00    	mov    %eax,0x2045d3(%rip)        # 606124 <gets_cnt>
  401b51:	f3 c3                	repz retq 

0000000000401b53 <save_term>:
  401b53:	8b 05 cb 45 20 00    	mov    0x2045cb(%rip),%eax        # 606124 <gets_cnt>
  401b59:	8d 04 40             	lea    (%rax,%rax,2),%eax
  401b5c:	48 98                	cltq   
  401b5e:	48 8d 15 bb 39 20 00 	lea    0x2039bb(%rip),%rdx        # 605520 <gets_buf>
  401b65:	c6 04 02 00          	movb   $0x0,(%rdx,%rax,1)
  401b69:	c3                   	retq   

0000000000401b6a <check_fail>:
  401b6a:	48 83 ec 08          	sub    $0x8,%rsp
  401b6e:	0f be 15 b3 45 20 00 	movsbl 0x2045b3(%rip),%edx        # 606128 <target_prefix>
  401b75:	4c 8d 05 a4 39 20 00 	lea    0x2039a4(%rip),%r8        # 605520 <gets_buf>
  401b7c:	8b 0d 76 39 20 00    	mov    0x203976(%rip),%ecx        # 6054f8 <check_level>
  401b82:	48 8d 35 02 18 00 00 	lea    0x1802(%rip),%rsi        # 40338b <_IO_stdin_used+0x3bb>
  401b89:	bf 01 00 00 00       	mov    $0x1,%edi
  401b8e:	b8 00 00 00 00       	mov    $0x0,%eax
  401b93:	e8 48 f2 ff ff       	callq  400de0 <__printf_chk@plt>
  401b98:	bf 01 00 00 00       	mov    $0x1,%edi
  401b9d:	e8 8e f2 ff ff       	callq  400e30 <exit@plt>

0000000000401ba2 <Gets>:
  401ba2:	41 54                	push   %r12
  401ba4:	55                   	push   %rbp
  401ba5:	53                   	push   %rbx
  401ba6:	49 89 fc             	mov    %rdi,%r12
  401ba9:	c7 05 71 45 20 00 00 	movl   $0x0,0x204571(%rip)        # 606124 <gets_cnt>
  401bb0:	00 00 00 
  401bb3:	48 89 fb             	mov    %rdi,%rbx
  401bb6:	eb 11                	jmp    401bc9 <Gets+0x27>
  401bb8:	48 8d 6b 01          	lea    0x1(%rbx),%rbp
  401bbc:	88 03                	mov    %al,(%rbx)
  401bbe:	0f b6 f8             	movzbl %al,%edi
  401bc1:	e8 34 ff ff ff       	callq  401afa <save_char>
  401bc6:	48 89 eb             	mov    %rbp,%rbx
  401bc9:	48 8b 3d 20 39 20 00 	mov    0x203920(%rip),%rdi        # 6054f0 <infile>
  401bd0:	e8 db f1 ff ff       	callq  400db0 <_IO_getc@plt>
  401bd5:	83 f8 ff             	cmp    $0xffffffff,%eax
  401bd8:	74 05                	je     401bdf <Gets+0x3d>
  401bda:	83 f8 0a             	cmp    $0xa,%eax
  401bdd:	75 d9                	jne    401bb8 <Gets+0x16>
  401bdf:	c6 03 00             	movb   $0x0,(%rbx)
  401be2:	b8 00 00 00 00       	mov    $0x0,%eax
  401be7:	e8 67 ff ff ff       	callq  401b53 <save_term>
  401bec:	4c 89 e0             	mov    %r12,%rax
  401bef:	5b                   	pop    %rbx
  401bf0:	5d                   	pop    %rbp
  401bf1:	41 5c                	pop    %r12
  401bf3:	c3                   	retq   

0000000000401bf4 <notify_server>:
  401bf4:	55                   	push   %rbp
  401bf5:	53                   	push   %rbx
  401bf6:	48 81 ec 18 40 00 00 	sub    $0x4018,%rsp
  401bfd:	64 48 8b 04 25 28 00 	mov    %fs:0x28,%rax
  401c04:	00 00 
  401c06:	48 89 84 24 08 40 00 	mov    %rax,0x4008(%rsp)
  401c0d:	00 
  401c0e:	31 c0                	xor    %eax,%eax
  401c10:	83 3d f1 38 20 00 00 	cmpl   $0x0,0x2038f1(%rip)        # 605508 <is_checker>
  401c17:	0f 85 d2 00 00 00    	jne    401cef <notify_server+0xfb>
  401c1d:	89 fb                	mov    %edi,%ebx
  401c1f:	8b 05 ff 44 20 00    	mov    0x2044ff(%rip),%eax        # 606124 <gets_cnt>
  401c25:	83 c0 64             	add    $0x64,%eax
  401c28:	3d 00 20 00 00       	cmp    $0x2000,%eax
  401c2d:	0f 8f dd 00 00 00    	jg     401d10 <notify_server+0x11c>
  401c33:	0f be 05 ee 44 20 00 	movsbl 0x2044ee(%rip),%eax        # 606128 <target_prefix>
  401c3a:	83 3d 47 38 20 00 00 	cmpl   $0x0,0x203847(%rip)        # 605488 <notify>
  401c41:	0f 84 e9 00 00 00    	je     401d30 <notify_server+0x13c>
  401c47:	8b 15 b3 38 20 00    	mov    0x2038b3(%rip),%edx        # 605500 <authkey>
  401c4d:	85 db                	test   %ebx,%ebx
  401c4f:	0f 84 e5 00 00 00    	je     401d3a <notify_server+0x146>
  401c55:	48 8d 2d 45 17 00 00 	lea    0x1745(%rip),%rbp        # 4033a1 <_IO_stdin_used+0x3d1>
  401c5c:	48 89 e7             	mov    %rsp,%rdi
  401c5f:	48 8d 0d ba 38 20 00 	lea    0x2038ba(%rip),%rcx        # 605520 <gets_buf>
  401c66:	51                   	push   %rcx
  401c67:	56                   	push   %rsi
  401c68:	50                   	push   %rax
  401c69:	52                   	push   %rdx
  401c6a:	49 89 e9             	mov    %rbp,%r9
  401c6d:	4c 8b 05 bc 34 20 00 	mov    0x2034bc(%rip),%r8        # 605130 <target_id>
  401c74:	48 8d 0d 30 17 00 00 	lea    0x1730(%rip),%rcx        # 4033ab <_IO_stdin_used+0x3db>
  401c7b:	ba 00 20 00 00       	mov    $0x2000,%edx
  401c80:	be 01 00 00 00       	mov    $0x1,%esi
  401c85:	b8 00 00 00 00       	mov    $0x0,%eax
  401c8a:	e8 d1 f1 ff ff       	callq  400e60 <__sprintf_chk@plt>
  401c8f:	48 83 c4 20          	add    $0x20,%rsp
  401c93:	83 3d ee 37 20 00 00 	cmpl   $0x0,0x2037ee(%rip)        # 605488 <notify>
  401c9a:	0f 84 df 00 00 00    	je     401d7f <notify_server+0x18b>
  401ca0:	85 db                	test   %ebx,%ebx
  401ca2:	0f 84 c6 00 00 00    	je     401d6e <notify_server+0x17a>
  401ca8:	48 89 e1             	mov    %rsp,%rcx
  401cab:	4c 8d 8c 24 00 20 00 	lea    0x2000(%rsp),%r9
  401cb2:	00 
  401cb3:	41 b8 00 00 00 00    	mov    $0x0,%r8d
  401cb9:	48 8b 15 88 34 20 00 	mov    0x203488(%rip),%rdx        # 605148 <lab>
  401cc0:	48 8b 35 89 34 20 00 	mov    0x203489(%rip),%rsi        # 605150 <course>
  401cc7:	48 8b 3d 72 34 20 00 	mov    0x203472(%rip),%rdi        # 605140 <user_id>
  401cce:	e8 af 11 00 00       	callq  402e82 <driver_post>
  401cd3:	85 c0                	test   %eax,%eax
  401cd5:	78 6f                	js     401d46 <notify_server+0x152>
  401cd7:	48 8d 3d 12 18 00 00 	lea    0x1812(%rip),%rdi        # 4034f0 <_IO_stdin_used+0x520>
  401cde:	e8 dd ef ff ff       	callq  400cc0 <puts@plt>
  401ce3:	48 8d 3d eb 16 00 00 	lea    0x16eb(%rip),%rdi        # 4033d5 <_IO_stdin_used+0x405>
  401cea:	e8 d1 ef ff ff       	callq  400cc0 <puts@plt>
  401cef:	48 8b 84 24 08 40 00 	mov    0x4008(%rsp),%rax
  401cf6:	00 
  401cf7:	64 48 33 04 25 28 00 	xor    %fs:0x28,%rax
  401cfe:	00 00 
  401d00:	0f 85 07 01 00 00    	jne    401e0d <notify_server+0x219>
  401d06:	48 81 c4 18 40 00 00 	add    $0x4018,%rsp
  401d0d:	5b                   	pop    %rbx
  401d0e:	5d                   	pop    %rbp
  401d0f:	c3                   	retq   
  401d10:	48 8d 35 a9 17 00 00 	lea    0x17a9(%rip),%rsi        # 4034c0 <_IO_stdin_used+0x4f0>
  401d17:	bf 01 00 00 00       	mov    $0x1,%edi
  401d1c:	b8 00 00 00 00       	mov    $0x0,%eax
  401d21:	e8 ba f0 ff ff       	callq  400de0 <__printf_chk@plt>
  401d26:	bf 01 00 00 00       	mov    $0x1,%edi
  401d2b:	e8 00 f1 ff ff       	callq  400e30 <exit@plt>
  401d30:	ba ff ff ff ff       	mov    $0xffffffff,%edx
  401d35:	e9 13 ff ff ff       	jmpq   401c4d <notify_server+0x59>
  401d3a:	48 8d 2d 65 16 00 00 	lea    0x1665(%rip),%rbp        # 4033a6 <_IO_stdin_used+0x3d6>
  401d41:	e9 16 ff ff ff       	jmpq   401c5c <notify_server+0x68>
  401d46:	48 8d 94 24 00 20 00 	lea    0x2000(%rsp),%rdx
  401d4d:	00 
  401d4e:	48 8d 35 74 16 00 00 	lea    0x1674(%rip),%rsi        # 4033c9 <_IO_stdin_used+0x3f9>
  401d55:	bf 01 00 00 00       	mov    $0x1,%edi
  401d5a:	b8 00 00 00 00       	mov    $0x0,%eax
  401d5f:	e8 7c f0 ff ff       	callq  400de0 <__printf_chk@plt>
  401d64:	bf 01 00 00 00       	mov    $0x1,%edi
  401d69:	e8 c2 f0 ff ff       	callq  400e30 <exit@plt>
  401d6e:	48 8d 3d 6a 16 00 00 	lea    0x166a(%rip),%rdi        # 4033df <_IO_stdin_used+0x40f>
  401d75:	e8 46 ef ff ff       	callq  400cc0 <puts@plt>
  401d7a:	e9 70 ff ff ff       	jmpq   401cef <notify_server+0xfb>
  401d7f:	48 89 ea             	mov    %rbp,%rdx
  401d82:	48 8d 35 9f 17 00 00 	lea    0x179f(%rip),%rsi        # 403528 <_IO_stdin_used+0x558>
  401d89:	bf 01 00 00 00       	mov    $0x1,%edi
  401d8e:	b8 00 00 00 00       	mov    $0x0,%eax
  401d93:	e8 48 f0 ff ff       	callq  400de0 <__printf_chk@plt>
  401d98:	48 8b 15 a1 33 20 00 	mov    0x2033a1(%rip),%rdx        # 605140 <user_id>
  401d9f:	48 8d 35 40 16 00 00 	lea    0x1640(%rip),%rsi        # 4033e6 <_IO_stdin_used+0x416>
  401da6:	bf 01 00 00 00       	mov    $0x1,%edi
  401dab:	b8 00 00 00 00       	mov    $0x0,%eax
  401db0:	e8 2b f0 ff ff       	callq  400de0 <__printf_chk@plt>
  401db5:	48 8b 15 94 33 20 00 	mov    0x203394(%rip),%rdx        # 605150 <course>
  401dbc:	48 8d 35 30 16 00 00 	lea    0x1630(%rip),%rsi        # 4033f3 <_IO_stdin_used+0x423>
  401dc3:	bf 01 00 00 00       	mov    $0x1,%edi
  401dc8:	b8 00 00 00 00       	mov    $0x0,%eax
  401dcd:	e8 0e f0 ff ff       	callq  400de0 <__printf_chk@plt>
  401dd2:	48 8b 15 6f 33 20 00 	mov    0x20336f(%rip),%rdx        # 605148 <lab>
  401dd9:	48 8d 35 1f 16 00 00 	lea    0x161f(%rip),%rsi        # 4033ff <_IO_stdin_used+0x42f>
  401de0:	bf 01 00 00 00       	mov    $0x1,%edi
  401de5:	b8 00 00 00 00       	mov    $0x0,%eax
  401dea:	e8 f1 ef ff ff       	callq  400de0 <__printf_chk@plt>
  401def:	48 89 e2             	mov    %rsp,%rdx
  401df2:	48 8d 35 0f 16 00 00 	lea    0x160f(%rip),%rsi        # 403408 <_IO_stdin_used+0x438>
  401df9:	bf 01 00 00 00       	mov    $0x1,%edi
  401dfe:	b8 00 00 00 00       	mov    $0x0,%eax
  401e03:	e8 d8 ef ff ff       	callq  400de0 <__printf_chk@plt>
  401e08:	e9 e2 fe ff ff       	jmpq   401cef <notify_server+0xfb>
  401e0d:	e8 ce ee ff ff       	callq  400ce0 <__stack_chk_fail@plt>

0000000000401e12 <validate>:
  401e12:	53                   	push   %rbx
  401e13:	89 fb                	mov    %edi,%ebx
  401e15:	83 3d ec 36 20 00 00 	cmpl   $0x0,0x2036ec(%rip)        # 605508 <is_checker>
  401e1c:	74 72                	je     401e90 <validate+0x7e>
  401e1e:	39 3d d8 36 20 00    	cmp    %edi,0x2036d8(%rip)        # 6054fc <vlevel>
  401e24:	75 32                	jne    401e58 <validate+0x46>
  401e26:	8b 15 cc 36 20 00    	mov    0x2036cc(%rip),%edx        # 6054f8 <check_level>
  401e2c:	39 fa                	cmp    %edi,%edx
  401e2e:	75 3e                	jne    401e6e <validate+0x5c>
  401e30:	0f be 15 f1 42 20 00 	movsbl 0x2042f1(%rip),%edx        # 606128 <target_prefix>
  401e37:	4c 8d 05 e2 36 20 00 	lea    0x2036e2(%rip),%r8        # 605520 <gets_buf>
  401e3e:	89 f9                	mov    %edi,%ecx
  401e40:	48 8d 35 eb 15 00 00 	lea    0x15eb(%rip),%rsi        # 403432 <_IO_stdin_used+0x462>
  401e47:	bf 01 00 00 00       	mov    $0x1,%edi
  401e4c:	b8 00 00 00 00       	mov    $0x0,%eax
  401e51:	e8 8a ef ff ff       	callq  400de0 <__printf_chk@plt>
  401e56:	5b                   	pop    %rbx
  401e57:	c3                   	retq   
  401e58:	48 8d 3d b5 15 00 00 	lea    0x15b5(%rip),%rdi        # 403414 <_IO_stdin_used+0x444>
  401e5f:	e8 5c ee ff ff       	callq  400cc0 <puts@plt>
  401e64:	b8 00 00 00 00       	mov    $0x0,%eax
  401e69:	e8 fc fc ff ff       	callq  401b6a <check_fail>
  401e6e:	89 f9                	mov    %edi,%ecx
  401e70:	48 8d 35 d9 16 00 00 	lea    0x16d9(%rip),%rsi        # 403550 <_IO_stdin_used+0x580>
  401e77:	bf 01 00 00 00       	mov    $0x1,%edi
  401e7c:	b8 00 00 00 00       	mov    $0x0,%eax
  401e81:	e8 5a ef ff ff       	callq  400de0 <__printf_chk@plt>
  401e86:	b8 00 00 00 00       	mov    $0x0,%eax
  401e8b:	e8 da fc ff ff       	callq  401b6a <check_fail>
  401e90:	39 3d 66 36 20 00    	cmp    %edi,0x203666(%rip)        # 6054fc <vlevel>
  401e96:	74 1a                	je     401eb2 <validate+0xa0>
  401e98:	48 8d 3d 75 15 00 00 	lea    0x1575(%rip),%rdi        # 403414 <_IO_stdin_used+0x444>
  401e9f:	e8 1c ee ff ff       	callq  400cc0 <puts@plt>
  401ea4:	89 de                	mov    %ebx,%esi
  401ea6:	bf 00 00 00 00       	mov    $0x0,%edi
  401eab:	e8 44 fd ff ff       	callq  401bf4 <notify_server>
  401eb0:	eb a4                	jmp    401e56 <validate+0x44>
  401eb2:	0f be 0d 6f 42 20 00 	movsbl 0x20426f(%rip),%ecx        # 606128 <target_prefix>
  401eb9:	89 fa                	mov    %edi,%edx
  401ebb:	48 8d 35 b6 16 00 00 	lea    0x16b6(%rip),%rsi        # 403578 <_IO_stdin_used+0x5a8>
  401ec2:	bf 01 00 00 00       	mov    $0x1,%edi
  401ec7:	b8 00 00 00 00       	mov    $0x0,%eax
  401ecc:	e8 0f ef ff ff       	callq  400de0 <__printf_chk@plt>
  401ed1:	89 de                	mov    %ebx,%esi
  401ed3:	bf 01 00 00 00       	mov    $0x1,%edi
  401ed8:	e8 17 fd ff ff       	callq  401bf4 <notify_server>
  401edd:	e9 74 ff ff ff       	jmpq   401e56 <validate+0x44>

0000000000401ee2 <fail>:
  401ee2:	48 83 ec 08          	sub    $0x8,%rsp
  401ee6:	83 3d 1b 36 20 00 00 	cmpl   $0x0,0x20361b(%rip)        # 605508 <is_checker>
  401eed:	75 11                	jne    401f00 <fail+0x1e>
  401eef:	89 fe                	mov    %edi,%esi
  401ef1:	bf 00 00 00 00       	mov    $0x0,%edi
  401ef6:	e8 f9 fc ff ff       	callq  401bf4 <notify_server>
  401efb:	48 83 c4 08          	add    $0x8,%rsp
  401eff:	c3                   	retq   
  401f00:	b8 00 00 00 00       	mov    $0x0,%eax
  401f05:	e8 60 fc ff ff       	callq  401b6a <check_fail>

0000000000401f0a <bushandler>:
  401f0a:	48 83 ec 08          	sub    $0x8,%rsp
  401f0e:	83 3d f3 35 20 00 00 	cmpl   $0x0,0x2035f3(%rip)        # 605508 <is_checker>
  401f15:	74 16                	je     401f2d <bushandler+0x23>
  401f17:	48 8d 3d 29 15 00 00 	lea    0x1529(%rip),%rdi        # 403447 <_IO_stdin_used+0x477>
  401f1e:	e8 9d ed ff ff       	callq  400cc0 <puts@plt>
  401f23:	b8 00 00 00 00       	mov    $0x0,%eax
  401f28:	e8 3d fc ff ff       	callq  401b6a <check_fail>
  401f2d:	48 8d 3d 7c 16 00 00 	lea    0x167c(%rip),%rdi        # 4035b0 <_IO_stdin_used+0x5e0>
  401f34:	e8 87 ed ff ff       	callq  400cc0 <puts@plt>
  401f39:	48 8d 3d 11 15 00 00 	lea    0x1511(%rip),%rdi        # 403451 <_IO_stdin_used+0x481>
  401f40:	e8 7b ed ff ff       	callq  400cc0 <puts@plt>
  401f45:	be 00 00 00 00       	mov    $0x0,%esi
  401f4a:	bf 00 00 00 00       	mov    $0x0,%edi
  401f4f:	e8 a0 fc ff ff       	callq  401bf4 <notify_server>
  401f54:	bf 01 00 00 00       	mov    $0x1,%edi
  401f59:	e8 d2 ee ff ff       	callq  400e30 <exit@plt>

0000000000401f5e <seghandler>:
  401f5e:	48 83 ec 08          	sub    $0x8,%rsp
  401f62:	83 3d 9f 35 20 00 00 	cmpl   $0x0,0x20359f(%rip)        # 605508 <is_checker>
  401f69:	74 16                	je     401f81 <seghandler+0x23>
  401f6b:	48 8d 3d f5 14 00 00 	lea    0x14f5(%rip),%rdi        # 403467 <_IO_stdin_used+0x497>
  401f72:	e8 49 ed ff ff       	callq  400cc0 <puts@plt>
  401f77:	b8 00 00 00 00       	mov    $0x0,%eax
  401f7c:	e8 e9 fb ff ff       	callq  401b6a <check_fail>
  401f81:	48 8d 3d 48 16 00 00 	lea    0x1648(%rip),%rdi        # 4035d0 <_IO_stdin_used+0x600>
  401f88:	e8 33 ed ff ff       	callq  400cc0 <puts@plt>
  401f8d:	48 8d 3d bd 14 00 00 	lea    0x14bd(%rip),%rdi        # 403451 <_IO_stdin_used+0x481>
  401f94:	e8 27 ed ff ff       	callq  400cc0 <puts@plt>
  401f99:	be 00 00 00 00       	mov    $0x0,%esi
  401f9e:	bf 00 00 00 00       	mov    $0x0,%edi
  401fa3:	e8 4c fc ff ff       	callq  401bf4 <notify_server>
  401fa8:	bf 01 00 00 00       	mov    $0x1,%edi
  401fad:	e8 7e ee ff ff       	callq  400e30 <exit@plt>

0000000000401fb2 <illegalhandler>:
  401fb2:	48 83 ec 08          	sub    $0x8,%rsp
  401fb6:	83 3d 4b 35 20 00 00 	cmpl   $0x0,0x20354b(%rip)        # 605508 <is_checker>
  401fbd:	74 16                	je     401fd5 <illegalhandler+0x23>
  401fbf:	48 8d 3d b4 14 00 00 	lea    0x14b4(%rip),%rdi        # 40347a <_IO_stdin_used+0x4aa>
  401fc6:	e8 f5 ec ff ff       	callq  400cc0 <puts@plt>
  401fcb:	b8 00 00 00 00       	mov    $0x0,%eax
  401fd0:	e8 95 fb ff ff       	callq  401b6a <check_fail>
  401fd5:	48 8d 3d 1c 16 00 00 	lea    0x161c(%rip),%rdi        # 4035f8 <_IO_stdin_used+0x628>
  401fdc:	e8 df ec ff ff       	callq  400cc0 <puts@plt>
  401fe1:	48 8d 3d 69 14 00 00 	lea    0x1469(%rip),%rdi        # 403451 <_IO_stdin_used+0x481>
  401fe8:	e8 d3 ec ff ff       	callq  400cc0 <puts@plt>
  401fed:	be 00 00 00 00       	mov    $0x0,%esi
  401ff2:	bf 00 00 00 00       	mov    $0x0,%edi
  401ff7:	e8 f8 fb ff ff       	callq  401bf4 <notify_server>
  401ffc:	bf 01 00 00 00       	mov    $0x1,%edi
  402001:	e8 2a ee ff ff       	callq  400e30 <exit@plt>

0000000000402006 <sigalrmhandler>:
  402006:	48 83 ec 08          	sub    $0x8,%rsp
  40200a:	83 3d f7 34 20 00 00 	cmpl   $0x0,0x2034f7(%rip)        # 605508 <is_checker>
  402011:	74 16                	je     402029 <sigalrmhandler+0x23>
  402013:	48 8d 3d 74 14 00 00 	lea    0x1474(%rip),%rdi        # 40348e <_IO_stdin_used+0x4be>
  40201a:	e8 a1 ec ff ff       	callq  400cc0 <puts@plt>
  40201f:	b8 00 00 00 00       	mov    $0x0,%eax
  402024:	e8 41 fb ff ff       	callq  401b6a <check_fail>
  402029:	ba 05 00 00 00       	mov    $0x5,%edx
  40202e:	48 8d 35 f3 15 00 00 	lea    0x15f3(%rip),%rsi        # 403628 <_IO_stdin_used+0x658>
  402035:	bf 01 00 00 00       	mov    $0x1,%edi
  40203a:	b8 00 00 00 00       	mov    $0x0,%eax
  40203f:	e8 9c ed ff ff       	callq  400de0 <__printf_chk@plt>
  402044:	be 00 00 00 00       	mov    $0x0,%esi
  402049:	bf 00 00 00 00       	mov    $0x0,%edi
  40204e:	e8 a1 fb ff ff       	callq  401bf4 <notify_server>
  402053:	bf 01 00 00 00       	mov    $0x1,%edi
  402058:	e8 d3 ed ff ff       	callq  400e30 <exit@plt>

000000000040205d <launch>:
  40205d:	55                   	push   %rbp
  40205e:	48 89 e5             	mov    %rsp,%rbp
  402061:	48 83 ec 10          	sub    $0x10,%rsp
  402065:	48 89 fa             	mov    %rdi,%rdx
  402068:	64 48 8b 04 25 28 00 	mov    %fs:0x28,%rax
  40206f:	00 00 
  402071:	48 89 45 f8          	mov    %rax,-0x8(%rbp)
  402075:	31 c0                	xor    %eax,%eax
  402077:	48 8d 47 1e          	lea    0x1e(%rdi),%rax
  40207b:	48 83 e0 f0          	and    $0xfffffffffffffff0,%rax
  40207f:	48 29 c4             	sub    %rax,%rsp
  402082:	48 8d 7c 24 0f       	lea    0xf(%rsp),%rdi
  402087:	48 83 e7 f0          	and    $0xfffffffffffffff0,%rdi
  40208b:	be f4 00 00 00       	mov    $0xf4,%esi
  402090:	e8 6b ec ff ff       	callq  400d00 <memset@plt>
  402095:	48 8b 05 04 34 20 00 	mov    0x203404(%rip),%rax        # 6054a0 <stdin@@GLIBC_2.2.5>
  40209c:	48 39 05 4d 34 20 00 	cmp    %rax,0x20344d(%rip)        # 6054f0 <infile>
  4020a3:	74 3a                	je     4020df <launch+0x82>
  4020a5:	c7 05 4d 34 20 00 00 	movl   $0x0,0x20344d(%rip)        # 6054fc <vlevel>
  4020ac:	00 00 00 
  4020af:	b8 00 00 00 00       	mov    $0x0,%eax
  4020b4:	e8 f3 f8 ff ff       	callq  4019ac <test>
  4020b9:	83 3d 48 34 20 00 00 	cmpl   $0x0,0x203448(%rip)        # 605508 <is_checker>
  4020c0:	75 35                	jne    4020f7 <launch+0x9a>
  4020c2:	48 8d 3d e5 13 00 00 	lea    0x13e5(%rip),%rdi        # 4034ae <_IO_stdin_used+0x4de>
  4020c9:	e8 f2 eb ff ff       	callq  400cc0 <puts@plt>
  4020ce:	48 8b 45 f8          	mov    -0x8(%rbp),%rax
  4020d2:	64 48 33 04 25 28 00 	xor    %fs:0x28,%rax
  4020d9:	00 00 
  4020db:	75 30                	jne    40210d <launch+0xb0>
  4020dd:	c9                   	leaveq 
  4020de:	c3                   	retq   
  4020df:	48 8d 35 b0 13 00 00 	lea    0x13b0(%rip),%rsi        # 403496 <_IO_stdin_used+0x4c6>
  4020e6:	bf 01 00 00 00       	mov    $0x1,%edi
  4020eb:	b8 00 00 00 00       	mov    $0x0,%eax
  4020f0:	e8 eb ec ff ff       	callq  400de0 <__printf_chk@plt>
  4020f5:	eb ae                	jmp    4020a5 <launch+0x48>
  4020f7:	48 8d 3d a5 13 00 00 	lea    0x13a5(%rip),%rdi        # 4034a3 <_IO_stdin_used+0x4d3>
  4020fe:	e8 bd eb ff ff       	callq  400cc0 <puts@plt>
  402103:	b8 00 00 00 00       	mov    $0x0,%eax
  402108:	e8 5d fa ff ff       	callq  401b6a <check_fail>
  40210d:	e8 ce eb ff ff       	callq  400ce0 <__stack_chk_fail@plt>

0000000000402112 <stable_launch>:
  402112:	53                   	push   %rbx
  402113:	48 89 3d ce 33 20 00 	mov    %rdi,0x2033ce(%rip)        # 6054e8 <global_offset>
  40211a:	41 b9 00 00 00 00    	mov    $0x0,%r9d
  402120:	41 b8 00 00 00 00    	mov    $0x0,%r8d
  402126:	b9 32 01 00 00       	mov    $0x132,%ecx
  40212b:	ba 07 00 00 00       	mov    $0x7,%edx
  402130:	be 00 00 10 00       	mov    $0x100000,%esi
  402135:	bf 00 60 58 55       	mov    $0x55586000,%edi
  40213a:	e8 b1 eb ff ff       	callq  400cf0 <mmap@plt>
  40213f:	48 89 c3             	mov    %rax,%rbx
  402142:	48 3d 00 60 58 55    	cmp    $0x55586000,%rax
  402148:	75 43                	jne    40218d <stable_launch+0x7b>
  40214a:	48 8d 90 f8 ff 0f 00 	lea    0xffff8(%rax),%rdx
  402151:	48 89 15 d8 3f 20 00 	mov    %rdx,0x203fd8(%rip)        # 606130 <stack_top>
  402158:	48 89 e0             	mov    %rsp,%rax
  40215b:	48 89 d4             	mov    %rdx,%rsp
  40215e:	48 89 c2             	mov    %rax,%rdx
  402161:	48 89 15 78 33 20 00 	mov    %rdx,0x203378(%rip)        # 6054e0 <global_save_stack>
  402168:	48 8b 3d 79 33 20 00 	mov    0x203379(%rip),%rdi        # 6054e8 <global_offset>
  40216f:	e8 e9 fe ff ff       	callq  40205d <launch>
  402174:	48 8b 05 65 33 20 00 	mov    0x203365(%rip),%rax        # 6054e0 <global_save_stack>
  40217b:	48 89 c4             	mov    %rax,%rsp
  40217e:	be 00 00 10 00       	mov    $0x100000,%esi
  402183:	48 89 df             	mov    %rbx,%rdi
  402186:	e8 45 ec ff ff       	callq  400dd0 <munmap@plt>
  40218b:	5b                   	pop    %rbx
  40218c:	c3                   	retq   
  40218d:	be 00 00 10 00       	mov    $0x100000,%esi
  402192:	48 89 c7             	mov    %rax,%rdi
  402195:	e8 36 ec ff ff       	callq  400dd0 <munmap@plt>
  40219a:	b9 00 60 58 55       	mov    $0x55586000,%ecx
  40219f:	48 8d 15 ba 14 00 00 	lea    0x14ba(%rip),%rdx        # 403660 <_IO_stdin_used+0x690>
  4021a6:	be 01 00 00 00       	mov    $0x1,%esi
  4021ab:	48 8b 3d 0e 33 20 00 	mov    0x20330e(%rip),%rdi        # 6054c0 <stderr@@GLIBC_2.2.5>
  4021b2:	b8 00 00 00 00       	mov    $0x0,%eax
  4021b7:	e8 94 ec ff ff       	callq  400e50 <__fprintf_chk@plt>
  4021bc:	bf 01 00 00 00       	mov    $0x1,%edi
  4021c1:	e8 6a ec ff ff       	callq  400e30 <exit@plt>

00000000004021c6 <rio_readinitb>:
  4021c6:	89 37                	mov    %esi,(%rdi)
  4021c8:	c7 47 04 00 00 00 00 	movl   $0x0,0x4(%rdi)
  4021cf:	48 8d 47 10          	lea    0x10(%rdi),%rax
  4021d3:	48 89 47 08          	mov    %rax,0x8(%rdi)
  4021d7:	c3                   	retq   

00000000004021d8 <sigalrm_handler>:
  4021d8:	48 83 ec 08          	sub    $0x8,%rsp
  4021dc:	b9 00 00 00 00       	mov    $0x0,%ecx
  4021e1:	48 8d 15 b8 14 00 00 	lea    0x14b8(%rip),%rdx        # 4036a0 <trans_char+0x10>
  4021e8:	be 01 00 00 00       	mov    $0x1,%esi
  4021ed:	48 8b 3d cc 32 20 00 	mov    0x2032cc(%rip),%rdi        # 6054c0 <stderr@@GLIBC_2.2.5>
  4021f4:	b8 00 00 00 00       	mov    $0x0,%eax
  4021f9:	e8 52 ec ff ff       	callq  400e50 <__fprintf_chk@plt>
  4021fe:	bf 01 00 00 00       	mov    $0x1,%edi
  402203:	e8 28 ec ff ff       	callq  400e30 <exit@plt>

0000000000402208 <rio_writen>:
  402208:	41 55                	push   %r13
  40220a:	41 54                	push   %r12
  40220c:	55                   	push   %rbp
  40220d:	53                   	push   %rbx
  40220e:	48 83 ec 08          	sub    $0x8,%rsp
  402212:	41 89 fc             	mov    %edi,%r12d
  402215:	48 89 f5             	mov    %rsi,%rbp
  402218:	49 89 d5             	mov    %rdx,%r13
  40221b:	48 89 d3             	mov    %rdx,%rbx
  40221e:	eb 06                	jmp    402226 <rio_writen+0x1e>
  402220:	48 29 c3             	sub    %rax,%rbx
  402223:	48 01 c5             	add    %rax,%rbp
  402226:	48 85 db             	test   %rbx,%rbx
  402229:	74 24                	je     40224f <rio_writen+0x47>
  40222b:	48 89 da             	mov    %rbx,%rdx
  40222e:	48 89 ee             	mov    %rbp,%rsi
  402231:	44 89 e7             	mov    %r12d,%edi
  402234:	e8 97 ea ff ff       	callq  400cd0 <write@plt>
  402239:	48 85 c0             	test   %rax,%rax
  40223c:	7f e2                	jg     402220 <rio_writen+0x18>
  40223e:	e8 3d ea ff ff       	callq  400c80 <__errno_location@plt>
  402243:	83 38 04             	cmpl   $0x4,(%rax)
  402246:	75 15                	jne    40225d <rio_writen+0x55>
  402248:	b8 00 00 00 00       	mov    $0x0,%eax
  40224d:	eb d1                	jmp    402220 <rio_writen+0x18>
  40224f:	4c 89 e8             	mov    %r13,%rax
  402252:	48 83 c4 08          	add    $0x8,%rsp
  402256:	5b                   	pop    %rbx
  402257:	5d                   	pop    %rbp
  402258:	41 5c                	pop    %r12
  40225a:	41 5d                	pop    %r13
  40225c:	c3                   	retq   
  40225d:	48 c7 c0 ff ff ff ff 	mov    $0xffffffffffffffff,%rax
  402264:	eb ec                	jmp    402252 <rio_writen+0x4a>

0000000000402266 <rio_read>:
  402266:	41 55                	push   %r13
  402268:	41 54                	push   %r12
  40226a:	55                   	push   %rbp
  40226b:	53                   	push   %rbx
  40226c:	48 83 ec 08          	sub    $0x8,%rsp
  402270:	48 89 fb             	mov    %rdi,%rbx
  402273:	49 89 f5             	mov    %rsi,%r13
  402276:	49 89 d4             	mov    %rdx,%r12
  402279:	eb 0a                	jmp    402285 <rio_read+0x1f>
  40227b:	e8 00 ea ff ff       	callq  400c80 <__errno_location@plt>
  402280:	83 38 04             	cmpl   $0x4,(%rax)
  402283:	75 5c                	jne    4022e1 <rio_read+0x7b>
  402285:	8b 6b 04             	mov    0x4(%rbx),%ebp
  402288:	85 ed                	test   %ebp,%ebp
  40228a:	7f 24                	jg     4022b0 <rio_read+0x4a>
  40228c:	48 8d 6b 10          	lea    0x10(%rbx),%rbp
  402290:	8b 3b                	mov    (%rbx),%edi
  402292:	ba 00 20 00 00       	mov    $0x2000,%edx
  402297:	48 89 ee             	mov    %rbp,%rsi
  40229a:	e8 91 ea ff ff       	callq  400d30 <read@plt>
  40229f:	89 43 04             	mov    %eax,0x4(%rbx)
  4022a2:	85 c0                	test   %eax,%eax
  4022a4:	78 d5                	js     40227b <rio_read+0x15>
  4022a6:	85 c0                	test   %eax,%eax
  4022a8:	74 40                	je     4022ea <rio_read+0x84>
  4022aa:	48 89 6b 08          	mov    %rbp,0x8(%rbx)
  4022ae:	eb d5                	jmp    402285 <rio_read+0x1f>
  4022b0:	89 e8                	mov    %ebp,%eax
  4022b2:	4c 39 e0             	cmp    %r12,%rax
  4022b5:	72 03                	jb     4022ba <rio_read+0x54>
  4022b7:	44 89 e5             	mov    %r12d,%ebp
  4022ba:	4c 63 e5             	movslq %ebp,%r12
  4022bd:	48 8b 73 08          	mov    0x8(%rbx),%rsi
  4022c1:	4c 89 e2             	mov    %r12,%rdx
  4022c4:	4c 89 ef             	mov    %r13,%rdi
  4022c7:	e8 b4 ea ff ff       	callq  400d80 <memcpy@plt>
  4022cc:	4c 01 63 08          	add    %r12,0x8(%rbx)
  4022d0:	29 6b 04             	sub    %ebp,0x4(%rbx)
  4022d3:	4c 89 e0             	mov    %r12,%rax
  4022d6:	48 83 c4 08          	add    $0x8,%rsp
  4022da:	5b                   	pop    %rbx
  4022db:	5d                   	pop    %rbp
  4022dc:	41 5c                	pop    %r12
  4022de:	41 5d                	pop    %r13
  4022e0:	c3                   	retq   
  4022e1:	48 c7 c0 ff ff ff ff 	mov    $0xffffffffffffffff,%rax
  4022e8:	eb ec                	jmp    4022d6 <rio_read+0x70>
  4022ea:	b8 00 00 00 00       	mov    $0x0,%eax
  4022ef:	eb e5                	jmp    4022d6 <rio_read+0x70>

00000000004022f1 <rio_readlineb>:
  4022f1:	41 55                	push   %r13
  4022f3:	41 54                	push   %r12
  4022f5:	55                   	push   %rbp
  4022f6:	53                   	push   %rbx
  4022f7:	48 83 ec 18          	sub    $0x18,%rsp
  4022fb:	49 89 fd             	mov    %rdi,%r13
  4022fe:	48 89 f5             	mov    %rsi,%rbp
  402301:	49 89 d4             	mov    %rdx,%r12
  402304:	64 48 8b 04 25 28 00 	mov    %fs:0x28,%rax
  40230b:	00 00 
  40230d:	48 89 44 24 08       	mov    %rax,0x8(%rsp)
  402312:	31 c0                	xor    %eax,%eax
  402314:	bb 01 00 00 00       	mov    $0x1,%ebx
  402319:	4c 39 e3             	cmp    %r12,%rbx
  40231c:	73 47                	jae    402365 <rio_readlineb+0x74>
  40231e:	48 8d 74 24 07       	lea    0x7(%rsp),%rsi
  402323:	ba 01 00 00 00       	mov    $0x1,%edx
  402328:	4c 89 ef             	mov    %r13,%rdi
  40232b:	e8 36 ff ff ff       	callq  402266 <rio_read>
  402330:	83 f8 01             	cmp    $0x1,%eax
  402333:	75 1c                	jne    402351 <rio_readlineb+0x60>
  402335:	48 8d 45 01          	lea    0x1(%rbp),%rax
  402339:	0f b6 54 24 07       	movzbl 0x7(%rsp),%edx
  40233e:	88 55 00             	mov    %dl,0x0(%rbp)
  402341:	80 7c 24 07 0a       	cmpb   $0xa,0x7(%rsp)
  402346:	74 1a                	je     402362 <rio_readlineb+0x71>
  402348:	48 83 c3 01          	add    $0x1,%rbx
  40234c:	48 89 c5             	mov    %rax,%rbp
  40234f:	eb c8                	jmp    402319 <rio_readlineb+0x28>
  402351:	85 c0                	test   %eax,%eax
  402353:	75 32                	jne    402387 <rio_readlineb+0x96>
  402355:	48 83 fb 01          	cmp    $0x1,%rbx
  402359:	75 0a                	jne    402365 <rio_readlineb+0x74>
  40235b:	b8 00 00 00 00       	mov    $0x0,%eax
  402360:	eb 0a                	jmp    40236c <rio_readlineb+0x7b>
  402362:	48 89 c5             	mov    %rax,%rbp
  402365:	c6 45 00 00          	movb   $0x0,0x0(%rbp)
  402369:	48 89 d8             	mov    %rbx,%rax
  40236c:	48 8b 4c 24 08       	mov    0x8(%rsp),%rcx
  402371:	64 48 33 0c 25 28 00 	xor    %fs:0x28,%rcx
  402378:	00 00 
  40237a:	75 14                	jne    402390 <rio_readlineb+0x9f>
  40237c:	48 83 c4 18          	add    $0x18,%rsp
  402380:	5b                   	pop    %rbx
  402381:	5d                   	pop    %rbp
  402382:	41 5c                	pop    %r12
  402384:	41 5d                	pop    %r13
  402386:	c3                   	retq   
  402387:	48 c7 c0 ff ff ff ff 	mov    $0xffffffffffffffff,%rax
  40238e:	eb dc                	jmp    40236c <rio_readlineb+0x7b>
  402390:	e8 4b e9 ff ff       	callq  400ce0 <__stack_chk_fail@plt>

0000000000402395 <urlencode>:
  402395:	41 54                	push   %r12
  402397:	55                   	push   %rbp
  402398:	53                   	push   %rbx
  402399:	48 83 ec 10          	sub    $0x10,%rsp
  40239d:	48 89 fb             	mov    %rdi,%rbx
  4023a0:	48 89 f5             	mov    %rsi,%rbp
  4023a3:	64 48 8b 04 25 28 00 	mov    %fs:0x28,%rax
  4023aa:	00 00 
  4023ac:	48 89 44 24 08       	mov    %rax,0x8(%rsp)
  4023b1:	31 c0                	xor    %eax,%eax
  4023b3:	48 c7 c1 ff ff ff ff 	mov    $0xffffffffffffffff,%rcx
  4023ba:	f2 ae                	repnz scas %es:(%rdi),%al
  4023bc:	48 89 ce             	mov    %rcx,%rsi
  4023bf:	48 f7 d6             	not    %rsi
  4023c2:	8d 46 ff             	lea    -0x1(%rsi),%eax
  4023c5:	eb 0f                	jmp    4023d6 <urlencode+0x41>
  4023c7:	44 88 45 00          	mov    %r8b,0x0(%rbp)
  4023cb:	48 8d 6d 01          	lea    0x1(%rbp),%rbp
  4023cf:	48 83 c3 01          	add    $0x1,%rbx
  4023d3:	44 89 e0             	mov    %r12d,%eax
  4023d6:	44 8d 60 ff          	lea    -0x1(%rax),%r12d
  4023da:	85 c0                	test   %eax,%eax
  4023dc:	0f 84 a8 00 00 00    	je     40248a <urlencode+0xf5>
  4023e2:	44 0f b6 03          	movzbl (%rbx),%r8d
  4023e6:	41 80 f8 2a          	cmp    $0x2a,%r8b
  4023ea:	0f 94 c2             	sete   %dl
  4023ed:	41 80 f8 2d          	cmp    $0x2d,%r8b
  4023f1:	0f 94 c0             	sete   %al
  4023f4:	08 c2                	or     %al,%dl
  4023f6:	75 cf                	jne    4023c7 <urlencode+0x32>
  4023f8:	41 80 f8 2e          	cmp    $0x2e,%r8b
  4023fc:	74 c9                	je     4023c7 <urlencode+0x32>
  4023fe:	41 80 f8 5f          	cmp    $0x5f,%r8b
  402402:	74 c3                	je     4023c7 <urlencode+0x32>
  402404:	41 8d 40 d0          	lea    -0x30(%r8),%eax
  402408:	3c 09                	cmp    $0x9,%al
  40240a:	76 bb                	jbe    4023c7 <urlencode+0x32>
  40240c:	41 8d 40 bf          	lea    -0x41(%r8),%eax
  402410:	3c 19                	cmp    $0x19,%al
  402412:	76 b3                	jbe    4023c7 <urlencode+0x32>
  402414:	41 8d 40 9f          	lea    -0x61(%r8),%eax
  402418:	3c 19                	cmp    $0x19,%al
  40241a:	76 ab                	jbe    4023c7 <urlencode+0x32>
  40241c:	41 80 f8 20          	cmp    $0x20,%r8b
  402420:	74 56                	je     402478 <urlencode+0xe3>
  402422:	41 8d 40 e0          	lea    -0x20(%r8),%eax
  402426:	3c 5f                	cmp    $0x5f,%al
  402428:	0f 96 c2             	setbe  %dl
  40242b:	41 80 f8 09          	cmp    $0x9,%r8b
  40242f:	0f 94 c0             	sete   %al
  402432:	08 c2                	or     %al,%dl
  402434:	74 4f                	je     402485 <urlencode+0xf0>
  402436:	48 89 e7             	mov    %rsp,%rdi
  402439:	45 0f b6 c0          	movzbl %r8b,%r8d
  40243d:	48 8d 0d f4 12 00 00 	lea    0x12f4(%rip),%rcx        # 403738 <trans_char+0xa8>
  402444:	ba 08 00 00 00       	mov    $0x8,%edx
  402449:	be 01 00 00 00       	mov    $0x1,%esi
  40244e:	b8 00 00 00 00       	mov    $0x0,%eax
  402453:	e8 08 ea ff ff       	callq  400e60 <__sprintf_chk@plt>
  402458:	0f b6 04 24          	movzbl (%rsp),%eax
  40245c:	88 45 00             	mov    %al,0x0(%rbp)
  40245f:	0f b6 44 24 01       	movzbl 0x1(%rsp),%eax
  402464:	88 45 01             	mov    %al,0x1(%rbp)
  402467:	0f b6 44 24 02       	movzbl 0x2(%rsp),%eax
  40246c:	88 45 02             	mov    %al,0x2(%rbp)
  40246f:	48 8d 6d 03          	lea    0x3(%rbp),%rbp
  402473:	e9 57 ff ff ff       	jmpq   4023cf <urlencode+0x3a>
  402478:	c6 45 00 2b          	movb   $0x2b,0x0(%rbp)
  40247c:	48 8d 6d 01          	lea    0x1(%rbp),%rbp
  402480:	e9 4a ff ff ff       	jmpq   4023cf <urlencode+0x3a>
  402485:	b8 ff ff ff ff       	mov    $0xffffffff,%eax
  40248a:	48 8b 74 24 08       	mov    0x8(%rsp),%rsi
  40248f:	64 48 33 34 25 28 00 	xor    %fs:0x28,%rsi
  402496:	00 00 
  402498:	75 09                	jne    4024a3 <urlencode+0x10e>
  40249a:	48 83 c4 10          	add    $0x10,%rsp
  40249e:	5b                   	pop    %rbx
  40249f:	5d                   	pop    %rbp
  4024a0:	41 5c                	pop    %r12
  4024a2:	c3                   	retq   
  4024a3:	e8 38 e8 ff ff       	callq  400ce0 <__stack_chk_fail@plt>

00000000004024a8 <submitr>:
  4024a8:	41 57                	push   %r15
  4024aa:	41 56                	push   %r14
  4024ac:	41 55                	push   %r13
  4024ae:	41 54                	push   %r12
  4024b0:	55                   	push   %rbp
  4024b1:	53                   	push   %rbx
  4024b2:	48 81 ec 68 a0 00 00 	sub    $0xa068,%rsp
  4024b9:	49 89 fd             	mov    %rdi,%r13
  4024bc:	89 74 24 14          	mov    %esi,0x14(%rsp)
  4024c0:	49 89 d7             	mov    %rdx,%r15
  4024c3:	48 89 4c 24 08       	mov    %rcx,0x8(%rsp)
  4024c8:	4c 89 44 24 18       	mov    %r8,0x18(%rsp)
  4024cd:	4d 89 ce             	mov    %r9,%r14
  4024d0:	48 8b ac 24 a0 a0 00 	mov    0xa0a0(%rsp),%rbp
  4024d7:	00 
  4024d8:	64 48 8b 04 25 28 00 	mov    %fs:0x28,%rax
  4024df:	00 00 
  4024e1:	48 89 84 24 58 a0 00 	mov    %rax,0xa058(%rsp)
  4024e8:	00 
  4024e9:	31 c0                	xor    %eax,%eax
  4024eb:	c7 44 24 2c 00 00 00 	movl   $0x0,0x2c(%rsp)
  4024f2:	00 
  4024f3:	ba 00 00 00 00       	mov    $0x0,%edx
  4024f8:	be 01 00 00 00       	mov    $0x1,%esi
  4024fd:	bf 02 00 00 00       	mov    $0x2,%edi
  402502:	e8 69 e9 ff ff       	callq  400e70 <socket@plt>
  402507:	85 c0                	test   %eax,%eax
  402509:	0f 88 a9 02 00 00    	js     4027b8 <submitr+0x310>
  40250f:	89 c3                	mov    %eax,%ebx
  402511:	4c 89 ef             	mov    %r13,%rdi
  402514:	e8 37 e8 ff ff       	callq  400d50 <gethostbyname@plt>
  402519:	48 85 c0             	test   %rax,%rax
  40251c:	0f 84 e2 02 00 00    	je     402804 <submitr+0x35c>
  402522:	4c 8d 64 24 30       	lea    0x30(%rsp),%r12
  402527:	48 c7 44 24 32 00 00 	movq   $0x0,0x32(%rsp)
  40252e:	00 00 
  402530:	c7 44 24 3a 00 00 00 	movl   $0x0,0x3a(%rsp)
  402537:	00 
  402538:	66 c7 44 24 3e 00 00 	movw   $0x0,0x3e(%rsp)
  40253f:	66 c7 44 24 30 02 00 	movw   $0x2,0x30(%rsp)
  402546:	48 63 50 14          	movslq 0x14(%rax),%rdx
  40254a:	48 8b 40 18          	mov    0x18(%rax),%rax
  40254e:	48 8b 30             	mov    (%rax),%rsi
  402551:	48 8d 7c 24 34       	lea    0x34(%rsp),%rdi
  402556:	b9 0c 00 00 00       	mov    $0xc,%ecx
  40255b:	e8 00 e8 ff ff       	callq  400d60 <__memmove_chk@plt>
  402560:	0f b7 44 24 14       	movzwl 0x14(%rsp),%eax
  402565:	66 c1 c8 08          	ror    $0x8,%ax
  402569:	66 89 44 24 32       	mov    %ax,0x32(%rsp)
  40256e:	ba 10 00 00 00       	mov    $0x10,%edx
  402573:	4c 89 e6             	mov    %r12,%rsi
  402576:	89 df                	mov    %ebx,%edi
  402578:	e8 c3 e8 ff ff       	callq  400e40 <connect@plt>
  40257d:	85 c0                	test   %eax,%eax
  40257f:	0f 88 e7 02 00 00    	js     40286c <submitr+0x3c4>
  402585:	48 c7 c6 ff ff ff ff 	mov    $0xffffffffffffffff,%rsi
  40258c:	b8 00 00 00 00       	mov    $0x0,%eax
  402591:	48 89 f1             	mov    %rsi,%rcx
  402594:	4c 89 f7             	mov    %r14,%rdi
  402597:	f2 ae                	repnz scas %es:(%rdi),%al
  402599:	48 89 ca             	mov    %rcx,%rdx
  40259c:	48 f7 d2             	not    %rdx
  40259f:	48 89 f1             	mov    %rsi,%rcx
  4025a2:	4c 89 ff             	mov    %r15,%rdi
  4025a5:	f2 ae                	repnz scas %es:(%rdi),%al
  4025a7:	48 f7 d1             	not    %rcx
  4025aa:	49 89 c8             	mov    %rcx,%r8
  4025ad:	48 89 f1             	mov    %rsi,%rcx
  4025b0:	48 8b 7c 24 08       	mov    0x8(%rsp),%rdi
  4025b5:	f2 ae                	repnz scas %es:(%rdi),%al
  4025b7:	48 f7 d1             	not    %rcx
  4025ba:	4d 8d 44 08 fe       	lea    -0x2(%r8,%rcx,1),%r8
  4025bf:	48 89 f1             	mov    %rsi,%rcx
  4025c2:	48 8b 7c 24 18       	mov    0x18(%rsp),%rdi
  4025c7:	f2 ae                	repnz scas %es:(%rdi),%al
  4025c9:	48 89 c8             	mov    %rcx,%rax
  4025cc:	48 f7 d0             	not    %rax
  4025cf:	49 8d 4c 00 ff       	lea    -0x1(%r8,%rax,1),%rcx
  4025d4:	48 8d 44 52 fd       	lea    -0x3(%rdx,%rdx,2),%rax
  4025d9:	48 8d 84 01 80 00 00 	lea    0x80(%rcx,%rax,1),%rax
  4025e0:	00 
  4025e1:	48 3d 00 20 00 00    	cmp    $0x2000,%rax
  4025e7:	0f 87 d9 02 00 00    	ja     4028c6 <submitr+0x41e>
  4025ed:	48 8d b4 24 50 40 00 	lea    0x4050(%rsp),%rsi
  4025f4:	00 
  4025f5:	b9 00 04 00 00       	mov    $0x400,%ecx
  4025fa:	b8 00 00 00 00       	mov    $0x0,%eax
  4025ff:	48 89 f7             	mov    %rsi,%rdi
  402602:	f3 48 ab             	rep stos %rax,%es:(%rdi)
  402605:	4c 89 f7             	mov    %r14,%rdi
  402608:	e8 88 fd ff ff       	callq  402395 <urlencode>
  40260d:	85 c0                	test   %eax,%eax
  40260f:	0f 88 24 03 00 00    	js     402939 <submitr+0x491>
  402615:	4c 8d a4 24 50 20 00 	lea    0x2050(%rsp),%r12
  40261c:	00 
  40261d:	41 55                	push   %r13
  40261f:	48 8d 84 24 58 40 00 	lea    0x4058(%rsp),%rax
  402626:	00 
  402627:	50                   	push   %rax
  402628:	4d 89 f9             	mov    %r15,%r9
  40262b:	4c 8b 44 24 18       	mov    0x18(%rsp),%r8
  402630:	48 8d 0d 91 10 00 00 	lea    0x1091(%rip),%rcx        # 4036c8 <trans_char+0x38>
  402637:	ba 00 20 00 00       	mov    $0x2000,%edx
  40263c:	be 01 00 00 00       	mov    $0x1,%esi
  402641:	4c 89 e7             	mov    %r12,%rdi
  402644:	b8 00 00 00 00       	mov    $0x0,%eax
  402649:	e8 12 e8 ff ff       	callq  400e60 <__sprintf_chk@plt>
  40264e:	48 c7 c1 ff ff ff ff 	mov    $0xffffffffffffffff,%rcx
  402655:	b8 00 00 00 00       	mov    $0x0,%eax
  40265a:	4c 89 e7             	mov    %r12,%rdi
  40265d:	f2 ae                	repnz scas %es:(%rdi),%al
  40265f:	48 89 ca             	mov    %rcx,%rdx
  402662:	48 f7 d2             	not    %rdx
  402665:	48 8d 52 ff          	lea    -0x1(%rdx),%rdx
  402669:	4c 89 e6             	mov    %r12,%rsi
  40266c:	89 df                	mov    %ebx,%edi
  40266e:	e8 95 fb ff ff       	callq  402208 <rio_writen>
  402673:	48 83 c4 10          	add    $0x10,%rsp
  402677:	48 85 c0             	test   %rax,%rax
  40267a:	0f 88 44 03 00 00    	js     4029c4 <submitr+0x51c>
  402680:	4c 8d 64 24 40       	lea    0x40(%rsp),%r12
  402685:	89 de                	mov    %ebx,%esi
  402687:	4c 89 e7             	mov    %r12,%rdi
  40268a:	e8 37 fb ff ff       	callq  4021c6 <rio_readinitb>
  40268f:	48 8d b4 24 50 20 00 	lea    0x2050(%rsp),%rsi
  402696:	00 
  402697:	ba 00 20 00 00       	mov    $0x2000,%edx
  40269c:	4c 89 e7             	mov    %r12,%rdi
  40269f:	e8 4d fc ff ff       	callq  4022f1 <rio_readlineb>
  4026a4:	48 85 c0             	test   %rax,%rax
  4026a7:	0f 8e 86 03 00 00    	jle    402a33 <submitr+0x58b>
  4026ad:	48 8d 4c 24 2c       	lea    0x2c(%rsp),%rcx
  4026b2:	48 8d 94 24 50 60 00 	lea    0x6050(%rsp),%rdx
  4026b9:	00 
  4026ba:	48 8d bc 24 50 20 00 	lea    0x2050(%rsp),%rdi
  4026c1:	00 
  4026c2:	4c 8d 84 24 50 80 00 	lea    0x8050(%rsp),%r8
  4026c9:	00 
  4026ca:	48 8d 35 6e 10 00 00 	lea    0x106e(%rip),%rsi        # 40373f <trans_char+0xaf>
  4026d1:	b8 00 00 00 00       	mov    $0x0,%eax
  4026d6:	e8 e5 e6 ff ff       	callq  400dc0 <__isoc99_sscanf@plt>
  4026db:	48 8d b4 24 50 20 00 	lea    0x2050(%rsp),%rsi
  4026e2:	00 
  4026e3:	b9 03 00 00 00       	mov    $0x3,%ecx
  4026e8:	48 8d 3d 67 10 00 00 	lea    0x1067(%rip),%rdi        # 403756 <trans_char+0xc6>
  4026ef:	f3 a6                	repz cmpsb %es:(%rdi),%ds:(%rsi)
  4026f1:	0f 97 c0             	seta   %al
  4026f4:	1c 00                	sbb    $0x0,%al
  4026f6:	84 c0                	test   %al,%al
  4026f8:	0f 84 b3 03 00 00    	je     402ab1 <submitr+0x609>
  4026fe:	48 8d b4 24 50 20 00 	lea    0x2050(%rsp),%rsi
  402705:	00 
  402706:	48 8d 7c 24 40       	lea    0x40(%rsp),%rdi
  40270b:	ba 00 20 00 00       	mov    $0x2000,%edx
  402710:	e8 dc fb ff ff       	callq  4022f1 <rio_readlineb>
  402715:	48 85 c0             	test   %rax,%rax
  402718:	7f c1                	jg     4026db <submitr+0x233>
  40271a:	48 b8 45 72 72 6f 72 	movabs $0x43203a726f727245,%rax
  402721:	3a 20 43 
  402724:	48 ba 6c 69 65 6e 74 	movabs $0x6e7520746e65696c,%rdx
  40272b:	20 75 6e 
  40272e:	48 89 45 00          	mov    %rax,0x0(%rbp)
  402732:	48 89 55 08          	mov    %rdx,0x8(%rbp)
  402736:	48 b8 61 62 6c 65 20 	movabs $0x206f7420656c6261,%rax
  40273d:	74 6f 20 
  402740:	48 ba 72 65 61 64 20 	movabs $0x6165682064616572,%rdx
  402747:	68 65 61 
  40274a:	48 89 45 10          	mov    %rax,0x10(%rbp)
  40274e:	48 89 55 18          	mov    %rdx,0x18(%rbp)
  402752:	48 b8 64 65 72 73 20 	movabs $0x6f72662073726564,%rax
  402759:	66 72 6f 
  40275c:	48 ba 6d 20 74 68 65 	movabs $0x657220656874206d,%rdx
  402763:	20 72 65 
  402766:	48 89 45 20          	mov    %rax,0x20(%rbp)
  40276a:	48 89 55 28          	mov    %rdx,0x28(%rbp)
  40276e:	48 b8 73 75 6c 74 20 	movabs $0x72657320746c7573,%rax
  402775:	73 65 72 
  402778:	48 89 45 30          	mov    %rax,0x30(%rbp)
  40277c:	c7 45 38 76 65 72 00 	movl   $0x726576,0x38(%rbp)
  402783:	89 df                	mov    %ebx,%edi
  402785:	e8 96 e5 ff ff       	callq  400d20 <close@plt>
  40278a:	b8 ff ff ff ff       	mov    $0xffffffff,%eax
  40278f:	48 8b 9c 24 58 a0 00 	mov    0xa058(%rsp),%rbx
  402796:	00 
  402797:	64 48 33 1c 25 28 00 	xor    %fs:0x28,%rbx
  40279e:	00 00 
  4027a0:	0f 85 7e 04 00 00    	jne    402c24 <submitr+0x77c>
  4027a6:	48 81 c4 68 a0 00 00 	add    $0xa068,%rsp
  4027ad:	5b                   	pop    %rbx
  4027ae:	5d                   	pop    %rbp
  4027af:	41 5c                	pop    %r12
  4027b1:	41 5d                	pop    %r13
  4027b3:	41 5e                	pop    %r14
  4027b5:	41 5f                	pop    %r15
  4027b7:	c3                   	retq   
  4027b8:	48 b8 45 72 72 6f 72 	movabs $0x43203a726f727245,%rax
  4027bf:	3a 20 43 
  4027c2:	48 ba 6c 69 65 6e 74 	movabs $0x6e7520746e65696c,%rdx
  4027c9:	20 75 6e 
  4027cc:	48 89 45 00          	mov    %rax,0x0(%rbp)
  4027d0:	48 89 55 08          	mov    %rdx,0x8(%rbp)
  4027d4:	48 b8 61 62 6c 65 20 	movabs $0x206f7420656c6261,%rax
  4027db:	74 6f 20 
  4027de:	48 ba 63 72 65 61 74 	movabs $0x7320657461657263,%rdx
  4027e5:	65 20 73 
  4027e8:	48 89 45 10          	mov    %rax,0x10(%rbp)
  4027ec:	48 89 55 18          	mov    %rdx,0x18(%rbp)
  4027f0:	c7 45 20 6f 63 6b 65 	movl   $0x656b636f,0x20(%rbp)
  4027f7:	66 c7 45 24 74 00    	movw   $0x74,0x24(%rbp)
  4027fd:	b8 ff ff ff ff       	mov    $0xffffffff,%eax
  402802:	eb 8b                	jmp    40278f <submitr+0x2e7>
  402804:	48 b8 45 72 72 6f 72 	movabs $0x44203a726f727245,%rax
  40280b:	3a 20 44 
  40280e:	48 ba 4e 53 20 69 73 	movabs $0x6e7520736920534e,%rdx
  402815:	20 75 6e 
  402818:	48 89 45 00          	mov    %rax,0x0(%rbp)
  40281c:	48 89 55 08          	mov    %rdx,0x8(%rbp)
  402820:	48 b8 61 62 6c 65 20 	movabs $0x206f7420656c6261,%rax
  402827:	74 6f 20 
  40282a:	48 ba 72 65 73 6f 6c 	movabs $0x2065766c6f736572,%rdx
  402831:	76 65 20 
  402834:	48 89 45 10          	mov    %rax,0x10(%rbp)
  402838:	48 89 55 18          	mov    %rdx,0x18(%rbp)
  40283c:	48 b8 73 65 72 76 65 	movabs $0x6120726576726573,%rax
  402843:	72 20 61 
  402846:	48 89 45 20          	mov    %rax,0x20(%rbp)
  40284a:	c7 45 28 64 64 72 65 	movl   $0x65726464,0x28(%rbp)
  402851:	66 c7 45 2c 73 73    	movw   $0x7373,0x2c(%rbp)
  402857:	c6 45 2e 00          	movb   $0x0,0x2e(%rbp)
  40285b:	89 df                	mov    %ebx,%edi
  40285d:	e8 be e4 ff ff       	callq  400d20 <close@plt>
  402862:	b8 ff ff ff ff       	mov    $0xffffffff,%eax
  402867:	e9 23 ff ff ff       	jmpq   40278f <submitr+0x2e7>
  40286c:	48 b8 45 72 72 6f 72 	movabs $0x55203a726f727245,%rax
  402873:	3a 20 55 
  402876:	48 ba 6e 61 62 6c 65 	movabs $0x6f7420656c62616e,%rdx
  40287d:	20 74 6f 
  402880:	48 89 45 00          	mov    %rax,0x0(%rbp)
  402884:	48 89 55 08          	mov    %rdx,0x8(%rbp)
  402888:	48 b8 20 63 6f 6e 6e 	movabs $0x7463656e6e6f6320,%rax
  40288f:	65 63 74 
  402892:	48 ba 20 74 6f 20 74 	movabs $0x20656874206f7420,%rdx
  402899:	68 65 20 
  40289c:	48 89 45 10          	mov    %rax,0x10(%rbp)
  4028a0:	48 89 55 18          	mov    %rdx,0x18(%rbp)
  4028a4:	c7 45 20 73 65 72 76 	movl   $0x76726573,0x20(%rbp)
  4028ab:	66 c7 45 24 65 72    	movw   $0x7265,0x24(%rbp)
  4028b1:	c6 45 26 00          	movb   $0x0,0x26(%rbp)
  4028b5:	89 df                	mov    %ebx,%edi
  4028b7:	e8 64 e4 ff ff       	callq  400d20 <close@plt>
  4028bc:	b8 ff ff ff ff       	mov    $0xffffffff,%eax
  4028c1:	e9 c9 fe ff ff       	jmpq   40278f <submitr+0x2e7>
  4028c6:	48 b8 45 72 72 6f 72 	movabs $0x52203a726f727245,%rax
  4028cd:	3a 20 52 
  4028d0:	48 ba 65 73 75 6c 74 	movabs $0x747320746c757365,%rdx
  4028d7:	20 73 74 
  4028da:	48 89 45 00          	mov    %rax,0x0(%rbp)
  4028de:	48 89 55 08          	mov    %rdx,0x8(%rbp)
  4028e2:	48 b8 72 69 6e 67 20 	movabs $0x6f6f7420676e6972,%rax
  4028e9:	74 6f 6f 
  4028ec:	48 ba 20 6c 61 72 67 	movabs $0x202e656772616c20,%rdx
  4028f3:	65 2e 20 
  4028f6:	48 89 45 10          	mov    %rax,0x10(%rbp)
  4028fa:	48 89 55 18          	mov    %rdx,0x18(%rbp)
  4028fe:	48 b8 49 6e 63 72 65 	movabs $0x6573616572636e49,%rax
  402905:	61 73 65 
  402908:	48 ba 20 53 55 42 4d 	movabs $0x5254494d42555320,%rdx
  40290f:	49 54 52 
  402912:	48 89 45 20          	mov    %rax,0x20(%rbp)
  402916:	48 89 55 28          	mov    %rdx,0x28(%rbp)
  40291a:	48 b8 5f 4d 41 58 42 	movabs $0x46554258414d5f,%rax
  402921:	55 46 00 
  402924:	48 89 45 30          	mov    %rax,0x30(%rbp)
  402928:	89 df                	mov    %ebx,%edi
  40292a:	e8 f1 e3 ff ff       	callq  400d20 <close@plt>
  40292f:	b8 ff ff ff ff       	mov    $0xffffffff,%eax
  402934:	e9 56 fe ff ff       	jmpq   40278f <submitr+0x2e7>
  402939:	48 b8 45 72 72 6f 72 	movabs $0x52203a726f727245,%rax
  402940:	3a 20 52 
  402943:	48 ba 65 73 75 6c 74 	movabs $0x747320746c757365,%rdx
  40294a:	20 73 74 
  40294d:	48 89 45 00          	mov    %rax,0x0(%rbp)
  402951:	48 89 55 08          	mov    %rdx,0x8(%rbp)
  402955:	48 b8 72 69 6e 67 20 	movabs $0x6e6f6320676e6972,%rax
  40295c:	63 6f 6e 
  40295f:	48 ba 74 61 69 6e 73 	movabs $0x6e6120736e696174,%rdx
  402966:	20 61 6e 
  402969:	48 89 45 10          	mov    %rax,0x10(%rbp)
  40296d:	48 89 55 18          	mov    %rdx,0x18(%rbp)
  402971:	48 b8 20 69 6c 6c 65 	movabs $0x6c6167656c6c6920,%rax
  402978:	67 61 6c 
  40297b:	48 ba 20 6f 72 20 75 	movabs $0x72706e7520726f20,%rdx
  402982:	6e 70 72 
  402985:	48 89 45 20          	mov    %rax,0x20(%rbp)
  402989:	48 89 55 28          	mov    %rdx,0x28(%rbp)
  40298d:	48 b8 69 6e 74 61 62 	movabs $0x20656c6261746e69,%rax
  402994:	6c 65 20 
  402997:	48 ba 63 68 61 72 61 	movabs $0x6574636172616863,%rdx
  40299e:	63 74 65 
  4029a1:	48 89 45 30          	mov    %rax,0x30(%rbp)
  4029a5:	48 89 55 38          	mov    %rdx,0x38(%rbp)
  4029a9:	66 c7 45 40 72 2e    	movw   $0x2e72,0x40(%rbp)
  4029af:	c6 45 42 00          	movb   $0x0,0x42(%rbp)
  4029b3:	89 df                	mov    %ebx,%edi
  4029b5:	e8 66 e3 ff ff       	callq  400d20 <close@plt>
  4029ba:	b8 ff ff ff ff       	mov    $0xffffffff,%eax
  4029bf:	e9 cb fd ff ff       	jmpq   40278f <submitr+0x2e7>
  4029c4:	48 b8 45 72 72 6f 72 	movabs $0x43203a726f727245,%rax
  4029cb:	3a 20 43 
  4029ce:	48 ba 6c 69 65 6e 74 	movabs $0x6e7520746e65696c,%rdx
  4029d5:	20 75 6e 
  4029d8:	48 89 45 00          	mov    %rax,0x0(%rbp)
  4029dc:	48 89 55 08          	mov    %rdx,0x8(%rbp)
  4029e0:	48 b8 61 62 6c 65 20 	movabs $0x206f7420656c6261,%rax
  4029e7:	74 6f 20 
  4029ea:	48 ba 77 72 69 74 65 	movabs $0x6f74206574697277,%rdx
  4029f1:	20 74 6f 
  4029f4:	48 89 45 10          	mov    %rax,0x10(%rbp)
  4029f8:	48 89 55 18          	mov    %rdx,0x18(%rbp)
  4029fc:	48 b8 20 74 68 65 20 	movabs $0x7365722065687420,%rax
  402a03:	72 65 73 
  402a06:	48 ba 75 6c 74 20 73 	movabs $0x7672657320746c75,%rdx
  402a0d:	65 72 76 
  402a10:	48 89 45 20          	mov    %rax,0x20(%rbp)
  402a14:	48 89 55 28          	mov    %rdx,0x28(%rbp)
  402a18:	66 c7 45 30 65 72    	movw   $0x7265,0x30(%rbp)
  402a1e:	c6 45 32 00          	movb   $0x0,0x32(%rbp)
  402a22:	89 df                	mov    %ebx,%edi
  402a24:	e8 f7 e2 ff ff       	callq  400d20 <close@plt>
  402a29:	b8 ff ff ff ff       	mov    $0xffffffff,%eax
  402a2e:	e9 5c fd ff ff       	jmpq   40278f <submitr+0x2e7>
  402a33:	48 b8 45 72 72 6f 72 	movabs $0x43203a726f727245,%rax
  402a3a:	3a 20 43 
  402a3d:	48 ba 6c 69 65 6e 74 	movabs $0x6e7520746e65696c,%rdx
  402a44:	20 75 6e 
  402a47:	48 89 45 00          	mov    %rax,0x0(%rbp)
  402a4b:	48 89 55 08          	mov    %rdx,0x8(%rbp)
  402a4f:	48 b8 61 62 6c 65 20 	movabs $0x206f7420656c6261,%rax
  402a56:	74 6f 20 
  402a59:	48 ba 72 65 61 64 20 	movabs $0x7269662064616572,%rdx
  402a60:	66 69 72 
  402a63:	48 89 45 10          	mov    %rax,0x10(%rbp)
  402a67:	48 89 55 18          	mov    %rdx,0x18(%rbp)
  402a6b:	48 b8 73 74 20 68 65 	movabs $0x6564616568207473,%rax
  402a72:	61 64 65 
  402a75:	48 ba 72 20 66 72 6f 	movabs $0x72206d6f72662072,%rdx
  402a7c:	6d 20 72 
  402a7f:	48 89 45 20          	mov    %rax,0x20(%rbp)
  402a83:	48 89 55 28          	mov    %rdx,0x28(%rbp)
  402a87:	48 b8 65 73 75 6c 74 	movabs $0x657320746c757365,%rax
  402a8e:	20 73 65 
  402a91:	48 89 45 30          	mov    %rax,0x30(%rbp)
  402a95:	c7 45 38 72 76 65 72 	movl   $0x72657672,0x38(%rbp)
  402a9c:	c6 45 3c 00          	movb   $0x0,0x3c(%rbp)
  402aa0:	89 df                	mov    %ebx,%edi
  402aa2:	e8 79 e2 ff ff       	callq  400d20 <close@plt>
  402aa7:	b8 ff ff ff ff       	mov    $0xffffffff,%eax
  402aac:	e9 de fc ff ff       	jmpq   40278f <submitr+0x2e7>
  402ab1:	48 8d b4 24 50 20 00 	lea    0x2050(%rsp),%rsi
  402ab8:	00 
  402ab9:	48 8d 7c 24 40       	lea    0x40(%rsp),%rdi
  402abe:	ba 00 20 00 00       	mov    $0x2000,%edx
  402ac3:	e8 29 f8 ff ff       	callq  4022f1 <rio_readlineb>
  402ac8:	48 85 c0             	test   %rax,%rax
  402acb:	0f 8e 96 00 00 00    	jle    402b67 <submitr+0x6bf>
  402ad1:	44 8b 44 24 2c       	mov    0x2c(%rsp),%r8d
  402ad6:	41 81 f8 c8 00 00 00 	cmp    $0xc8,%r8d
  402add:	0f 85 08 01 00 00    	jne    402beb <submitr+0x743>
  402ae3:	48 8d b4 24 50 20 00 	lea    0x2050(%rsp),%rsi
  402aea:	00 
  402aeb:	48 89 ef             	mov    %rbp,%rdi
  402aee:	e8 bd e1 ff ff       	callq  400cb0 <strcpy@plt>
  402af3:	89 df                	mov    %ebx,%edi
  402af5:	e8 26 e2 ff ff       	callq  400d20 <close@plt>
  402afa:	b9 04 00 00 00       	mov    $0x4,%ecx
  402aff:	48 8d 3d 4a 0c 00 00 	lea    0xc4a(%rip),%rdi        # 403750 <trans_char+0xc0>
  402b06:	48 89 ee             	mov    %rbp,%rsi
  402b09:	f3 a6                	repz cmpsb %es:(%rdi),%ds:(%rsi)
  402b0b:	0f 97 c0             	seta   %al
  402b0e:	1c 00                	sbb    $0x0,%al
  402b10:	0f be c0             	movsbl %al,%eax
  402b13:	85 c0                	test   %eax,%eax
  402b15:	0f 84 74 fc ff ff    	je     40278f <submitr+0x2e7>
  402b1b:	b9 05 00 00 00       	mov    $0x5,%ecx
  402b20:	48 8d 3d 2d 0c 00 00 	lea    0xc2d(%rip),%rdi        # 403754 <trans_char+0xc4>
  402b27:	48 89 ee             	mov    %rbp,%rsi
  402b2a:	f3 a6                	repz cmpsb %es:(%rdi),%ds:(%rsi)
  402b2c:	0f 97 c0             	seta   %al
  402b2f:	1c 00                	sbb    $0x0,%al
  402b31:	0f be c0             	movsbl %al,%eax
  402b34:	85 c0                	test   %eax,%eax
  402b36:	0f 84 53 fc ff ff    	je     40278f <submitr+0x2e7>
  402b3c:	b9 03 00 00 00       	mov    $0x3,%ecx
  402b41:	48 8d 3d 11 0c 00 00 	lea    0xc11(%rip),%rdi        # 403759 <trans_char+0xc9>
  402b48:	48 89 ee             	mov    %rbp,%rsi
  402b4b:	f3 a6                	repz cmpsb %es:(%rdi),%ds:(%rsi)
  402b4d:	0f 97 c0             	seta   %al
  402b50:	1c 00                	sbb    $0x0,%al
  402b52:	0f be c0             	movsbl %al,%eax
  402b55:	85 c0                	test   %eax,%eax
  402b57:	0f 84 32 fc ff ff    	je     40278f <submitr+0x2e7>
  402b5d:	b8 ff ff ff ff       	mov    $0xffffffff,%eax
  402b62:	e9 28 fc ff ff       	jmpq   40278f <submitr+0x2e7>
  402b67:	48 b8 45 72 72 6f 72 	movabs $0x43203a726f727245,%rax
  402b6e:	3a 20 43 
  402b71:	48 ba 6c 69 65 6e 74 	movabs $0x6e7520746e65696c,%rdx
  402b78:	20 75 6e 
  402b7b:	48 89 45 00          	mov    %rax,0x0(%rbp)
  402b7f:	48 89 55 08          	mov    %rdx,0x8(%rbp)
  402b83:	48 b8 61 62 6c 65 20 	movabs $0x206f7420656c6261,%rax
  402b8a:	74 6f 20 
  402b8d:	48 ba 72 65 61 64 20 	movabs $0x6174732064616572,%rdx
  402b94:	73 74 61 
  402b97:	48 89 45 10          	mov    %rax,0x10(%rbp)
  402b9b:	48 89 55 18          	mov    %rdx,0x18(%rbp)
  402b9f:	48 b8 74 75 73 20 6d 	movabs $0x7373656d20737574,%rax
  402ba6:	65 73 73 
  402ba9:	48 ba 61 67 65 20 66 	movabs $0x6d6f726620656761,%rdx
  402bb0:	72 6f 6d 
  402bb3:	48 89 45 20          	mov    %rax,0x20(%rbp)
  402bb7:	48 89 55 28          	mov    %rdx,0x28(%rbp)
  402bbb:	48 b8 20 72 65 73 75 	movabs $0x20746c7573657220,%rax
  402bc2:	6c 74 20 
  402bc5:	48 89 45 30          	mov    %rax,0x30(%rbp)
  402bc9:	c7 45 38 73 65 72 76 	movl   $0x76726573,0x38(%rbp)
  402bd0:	66 c7 45 3c 65 72    	movw   $0x7265,0x3c(%rbp)
  402bd6:	c6 45 3e 00          	movb   $0x0,0x3e(%rbp)
  402bda:	89 df                	mov    %ebx,%edi
  402bdc:	e8 3f e1 ff ff       	callq  400d20 <close@plt>
  402be1:	b8 ff ff ff ff       	mov    $0xffffffff,%eax
  402be6:	e9 a4 fb ff ff       	jmpq   40278f <submitr+0x2e7>
  402beb:	4c 8d 8c 24 50 80 00 	lea    0x8050(%rsp),%r9
  402bf2:	00 
  402bf3:	48 8d 0d 0e 0b 00 00 	lea    0xb0e(%rip),%rcx        # 403708 <trans_char+0x78>
  402bfa:	48 c7 c2 ff ff ff ff 	mov    $0xffffffffffffffff,%rdx
  402c01:	be 01 00 00 00       	mov    $0x1,%esi
  402c06:	48 89 ef             	mov    %rbp,%rdi
  402c09:	b8 00 00 00 00       	mov    $0x0,%eax
  402c0e:	e8 4d e2 ff ff       	callq  400e60 <__sprintf_chk@plt>
  402c13:	89 df                	mov    %ebx,%edi
  402c15:	e8 06 e1 ff ff       	callq  400d20 <close@plt>
  402c1a:	b8 ff ff ff ff       	mov    $0xffffffff,%eax
  402c1f:	e9 6b fb ff ff       	jmpq   40278f <submitr+0x2e7>
  402c24:	e8 b7 e0 ff ff       	callq  400ce0 <__stack_chk_fail@plt>

0000000000402c29 <init_timeout>:
  402c29:	85 ff                	test   %edi,%edi
  402c2b:	74 28                	je     402c55 <init_timeout+0x2c>
  402c2d:	53                   	push   %rbx
  402c2e:	89 fb                	mov    %edi,%ebx
  402c30:	85 ff                	test   %edi,%edi
  402c32:	78 1a                	js     402c4e <init_timeout+0x25>
  402c34:	48 8d 35 9d f5 ff ff 	lea    -0xa63(%rip),%rsi        # 4021d8 <sigalrm_handler>
  402c3b:	bf 0e 00 00 00       	mov    $0xe,%edi
  402c40:	e8 fb e0 ff ff       	callq  400d40 <signal@plt>
  402c45:	89 df                	mov    %ebx,%edi
  402c47:	e8 c4 e0 ff ff       	callq  400d10 <alarm@plt>
  402c4c:	5b                   	pop    %rbx
  402c4d:	c3                   	retq   
  402c4e:	bb 00 00 00 00       	mov    $0x0,%ebx
  402c53:	eb df                	jmp    402c34 <init_timeout+0xb>
  402c55:	f3 c3                	repz retq 

0000000000402c57 <init_driver>:
  402c57:	41 54                	push   %r12
  402c59:	55                   	push   %rbp
  402c5a:	53                   	push   %rbx
  402c5b:	48 83 ec 20          	sub    $0x20,%rsp
  402c5f:	49 89 fc             	mov    %rdi,%r12
  402c62:	64 48 8b 04 25 28 00 	mov    %fs:0x28,%rax
  402c69:	00 00 
  402c6b:	48 89 44 24 18       	mov    %rax,0x18(%rsp)
  402c70:	31 c0                	xor    %eax,%eax
  402c72:	be 01 00 00 00       	mov    $0x1,%esi
  402c77:	bf 0d 00 00 00       	mov    $0xd,%edi
  402c7c:	e8 bf e0 ff ff       	callq  400d40 <signal@plt>
  402c81:	be 01 00 00 00       	mov    $0x1,%esi
  402c86:	bf 1d 00 00 00       	mov    $0x1d,%edi
  402c8b:	e8 b0 e0 ff ff       	callq  400d40 <signal@plt>
  402c90:	be 01 00 00 00       	mov    $0x1,%esi
  402c95:	bf 1d 00 00 00       	mov    $0x1d,%edi
  402c9a:	e8 a1 e0 ff ff       	callq  400d40 <signal@plt>
  402c9f:	ba 00 00 00 00       	mov    $0x0,%edx
  402ca4:	be 01 00 00 00       	mov    $0x1,%esi
  402ca9:	bf 02 00 00 00       	mov    $0x2,%edi
  402cae:	e8 bd e1 ff ff       	callq  400e70 <socket@plt>
  402cb3:	85 c0                	test   %eax,%eax
  402cb5:	0f 88 a3 00 00 00    	js     402d5e <init_driver+0x107>
  402cbb:	89 c3                	mov    %eax,%ebx
  402cbd:	48 8d 3d 98 0a 00 00 	lea    0xa98(%rip),%rdi        # 40375c <trans_char+0xcc>
  402cc4:	e8 87 e0 ff ff       	callq  400d50 <gethostbyname@plt>
  402cc9:	48 85 c0             	test   %rax,%rax
  402ccc:	0f 84 df 00 00 00    	je     402db1 <init_driver+0x15a>
  402cd2:	48 89 e5             	mov    %rsp,%rbp
  402cd5:	48 c7 44 24 02 00 00 	movq   $0x0,0x2(%rsp)
  402cdc:	00 00 
  402cde:	c7 45 0a 00 00 00 00 	movl   $0x0,0xa(%rbp)
  402ce5:	66 c7 45 0e 00 00    	movw   $0x0,0xe(%rbp)
  402ceb:	66 c7 04 24 02 00    	movw   $0x2,(%rsp)
  402cf1:	48 63 50 14          	movslq 0x14(%rax),%rdx
  402cf5:	48 8b 40 18          	mov    0x18(%rax),%rax
  402cf9:	48 8b 30             	mov    (%rax),%rsi
  402cfc:	48 8d 7d 04          	lea    0x4(%rbp),%rdi
  402d00:	b9 0c 00 00 00       	mov    $0xc,%ecx
  402d05:	e8 56 e0 ff ff       	callq  400d60 <__memmove_chk@plt>
  402d0a:	66 c7 44 24 02 3c 9a 	movw   $0x9a3c,0x2(%rsp)
  402d11:	ba 10 00 00 00       	mov    $0x10,%edx
  402d16:	48 89 ee             	mov    %rbp,%rsi
  402d19:	89 df                	mov    %ebx,%edi
  402d1b:	e8 20 e1 ff ff       	callq  400e40 <connect@plt>
  402d20:	85 c0                	test   %eax,%eax
  402d22:	0f 88 fb 00 00 00    	js     402e23 <init_driver+0x1cc>
  402d28:	89 df                	mov    %ebx,%edi
  402d2a:	e8 f1 df ff ff       	callq  400d20 <close@plt>
  402d2f:	66 41 c7 04 24 4f 4b 	movw   $0x4b4f,(%r12)
  402d36:	41 c6 44 24 02 00    	movb   $0x0,0x2(%r12)
  402d3c:	b8 00 00 00 00       	mov    $0x0,%eax
  402d41:	48 8b 4c 24 18       	mov    0x18(%rsp),%rcx
  402d46:	64 48 33 0c 25 28 00 	xor    %fs:0x28,%rcx
  402d4d:	00 00 
  402d4f:	0f 85 28 01 00 00    	jne    402e7d <init_driver+0x226>
  402d55:	48 83 c4 20          	add    $0x20,%rsp
  402d59:	5b                   	pop    %rbx
  402d5a:	5d                   	pop    %rbp
  402d5b:	41 5c                	pop    %r12
  402d5d:	c3                   	retq   
  402d5e:	48 b8 45 72 72 6f 72 	movabs $0x43203a726f727245,%rax
  402d65:	3a 20 43 
  402d68:	48 ba 6c 69 65 6e 74 	movabs $0x6e7520746e65696c,%rdx
  402d6f:	20 75 6e 
  402d72:	49 89 04 24          	mov    %rax,(%r12)
  402d76:	49 89 54 24 08       	mov    %rdx,0x8(%r12)
  402d7b:	48 b8 61 62 6c 65 20 	movabs $0x206f7420656c6261,%rax
  402d82:	74 6f 20 
  402d85:	48 ba 63 72 65 61 74 	movabs $0x7320657461657263,%rdx
  402d8c:	65 20 73 
  402d8f:	49 89 44 24 10       	mov    %rax,0x10(%r12)
  402d94:	49 89 54 24 18       	mov    %rdx,0x18(%r12)
  402d99:	41 c7 44 24 20 6f 63 	movl   $0x656b636f,0x20(%r12)
  402da0:	6b 65 
  402da2:	66 41 c7 44 24 24 74 	movw   $0x74,0x24(%r12)
  402da9:	00 
  402daa:	b8 ff ff ff ff       	mov    $0xffffffff,%eax
  402daf:	eb 90                	jmp    402d41 <init_driver+0xea>
  402db1:	48 b8 45 72 72 6f 72 	movabs $0x44203a726f727245,%rax
  402db8:	3a 20 44 
  402dbb:	48 ba 4e 53 20 69 73 	movabs $0x6e7520736920534e,%rdx
  402dc2:	20 75 6e 
  402dc5:	49 89 04 24          	mov    %rax,(%r12)
  402dc9:	49 89 54 24 08       	mov    %rdx,0x8(%r12)
  402dce:	48 b8 61 62 6c 65 20 	movabs $0x206f7420656c6261,%rax
  402dd5:	74 6f 20 
  402dd8:	48 ba 72 65 73 6f 6c 	movabs $0x2065766c6f736572,%rdx
  402ddf:	76 65 20 
  402de2:	49 89 44 24 10       	mov    %rax,0x10(%r12)
  402de7:	49 89 54 24 18       	mov    %rdx,0x18(%r12)
  402dec:	48 b8 73 65 72 76 65 	movabs $0x6120726576726573,%rax
  402df3:	72 20 61 
  402df6:	49 89 44 24 20       	mov    %rax,0x20(%r12)
  402dfb:	41 c7 44 24 28 64 64 	movl   $0x65726464,0x28(%r12)
  402e02:	72 65 
  402e04:	66 41 c7 44 24 2c 73 	movw   $0x7373,0x2c(%r12)
  402e0b:	73 
  402e0c:	41 c6 44 24 2e 00    	movb   $0x0,0x2e(%r12)
  402e12:	89 df                	mov    %ebx,%edi
  402e14:	e8 07 df ff ff       	callq  400d20 <close@plt>
  402e19:	b8 ff ff ff ff       	mov    $0xffffffff,%eax
  402e1e:	e9 1e ff ff ff       	jmpq   402d41 <init_driver+0xea>
  402e23:	48 b8 45 72 72 6f 72 	movabs $0x55203a726f727245,%rax
  402e2a:	3a 20 55 
  402e2d:	48 ba 6e 61 62 6c 65 	movabs $0x6f7420656c62616e,%rdx
  402e34:	20 74 6f 
  402e37:	49 89 04 24          	mov    %rax,(%r12)
  402e3b:	49 89 54 24 08       	mov    %rdx,0x8(%r12)
  402e40:	48 b8 20 63 6f 6e 6e 	movabs $0x7463656e6e6f6320,%rax
  402e47:	65 63 74 
  402e4a:	48 ba 20 74 6f 20 73 	movabs $0x76726573206f7420,%rdx
  402e51:	65 72 76 
  402e54:	49 89 44 24 10       	mov    %rax,0x10(%r12)
  402e59:	49 89 54 24 18       	mov    %rdx,0x18(%r12)
  402e5e:	66 41 c7 44 24 20 65 	movw   $0x7265,0x20(%r12)
  402e65:	72 
  402e66:	41 c6 44 24 22 00    	movb   $0x0,0x22(%r12)
  402e6c:	89 df                	mov    %ebx,%edi
  402e6e:	e8 ad de ff ff       	callq  400d20 <close@plt>
  402e73:	b8 ff ff ff ff       	mov    $0xffffffff,%eax
  402e78:	e9 c4 fe ff ff       	jmpq   402d41 <init_driver+0xea>
  402e7d:	e8 5e de ff ff       	callq  400ce0 <__stack_chk_fail@plt>

0000000000402e82 <driver_post>:
  402e82:	53                   	push   %rbx
  402e83:	4c 89 cb             	mov    %r9,%rbx
  402e86:	45 85 c0             	test   %r8d,%r8d
  402e89:	75 18                	jne    402ea3 <driver_post+0x21>
  402e8b:	48 85 ff             	test   %rdi,%rdi
  402e8e:	74 05                	je     402e95 <driver_post+0x13>
  402e90:	80 3f 00             	cmpb   $0x0,(%rdi)
  402e93:	75 37                	jne    402ecc <driver_post+0x4a>
  402e95:	66 c7 03 4f 4b       	movw   $0x4b4f,(%rbx)
  402e9a:	c6 43 02 00          	movb   $0x0,0x2(%rbx)
  402e9e:	44 89 c0             	mov    %r8d,%eax
  402ea1:	5b                   	pop    %rbx
  402ea2:	c3                   	retq   
  402ea3:	48 89 ca             	mov    %rcx,%rdx
  402ea6:	48 8d 35 bb 08 00 00 	lea    0x8bb(%rip),%rsi        # 403768 <trans_char+0xd8>
  402ead:	bf 01 00 00 00       	mov    $0x1,%edi
  402eb2:	b8 00 00 00 00       	mov    $0x0,%eax
  402eb7:	e8 24 df ff ff       	callq  400de0 <__printf_chk@plt>
  402ebc:	66 c7 03 4f 4b       	movw   $0x4b4f,(%rbx)
  402ec1:	c6 43 02 00          	movb   $0x0,0x2(%rbx)
  402ec5:	b8 00 00 00 00       	mov    $0x0,%eax
  402eca:	eb d5                	jmp    402ea1 <driver_post+0x1f>
  402ecc:	48 83 ec 08          	sub    $0x8,%rsp
  402ed0:	41 51                	push   %r9
  402ed2:	49 89 c9             	mov    %rcx,%r9
  402ed5:	49 89 d0             	mov    %rdx,%r8
  402ed8:	48 89 f9             	mov    %rdi,%rcx
  402edb:	48 89 f2             	mov    %rsi,%rdx
  402ede:	be 9a 3c 00 00       	mov    $0x3c9a,%esi
  402ee3:	48 8d 3d 72 08 00 00 	lea    0x872(%rip),%rdi        # 40375c <trans_char+0xcc>
  402eea:	e8 b9 f5 ff ff       	callq  4024a8 <submitr>
  402eef:	48 83 c4 10          	add    $0x10,%rsp
  402ef3:	eb ac                	jmp    402ea1 <driver_post+0x1f>

0000000000402ef5 <check>:
  402ef5:	89 f8                	mov    %edi,%eax
  402ef7:	c1 e8 1c             	shr    $0x1c,%eax
  402efa:	85 c0                	test   %eax,%eax
  402efc:	74 1d                	je     402f1b <check+0x26>
  402efe:	b9 00 00 00 00       	mov    $0x0,%ecx
  402f03:	83 f9 1f             	cmp    $0x1f,%ecx
  402f06:	7f 0d                	jg     402f15 <check+0x20>
  402f08:	89 f8                	mov    %edi,%eax
  402f0a:	d3 e8                	shr    %cl,%eax
  402f0c:	3c 0a                	cmp    $0xa,%al
  402f0e:	74 11                	je     402f21 <check+0x2c>
  402f10:	83 c1 08             	add    $0x8,%ecx
  402f13:	eb ee                	jmp    402f03 <check+0xe>
  402f15:	b8 01 00 00 00       	mov    $0x1,%eax
  402f1a:	c3                   	retq   
  402f1b:	b8 00 00 00 00       	mov    $0x0,%eax
  402f20:	c3                   	retq   
  402f21:	b8 00 00 00 00       	mov    $0x0,%eax
  402f26:	c3                   	retq   

0000000000402f27 <gencookie>:
  402f27:	53                   	push   %rbx
  402f28:	83 c7 01             	add    $0x1,%edi
  402f2b:	e8 60 dd ff ff       	callq  400c90 <srandom@plt>
  402f30:	e8 6b de ff ff       	callq  400da0 <random@plt>
  402f35:	89 c3                	mov    %eax,%ebx
  402f37:	89 c7                	mov    %eax,%edi
  402f39:	e8 b7 ff ff ff       	callq  402ef5 <check>
  402f3e:	85 c0                	test   %eax,%eax
  402f40:	74 ee                	je     402f30 <gencookie+0x9>
  402f42:	89 d8                	mov    %ebx,%eax
  402f44:	5b                   	pop    %rbx
  402f45:	c3                   	retq   
  402f46:	66 2e 0f 1f 84 00 00 	nopw   %cs:0x0(%rax,%rax,1)
  402f4d:	00 00 00 

0000000000402f50 <__libc_csu_init>:
  402f50:	41 57                	push   %r15
  402f52:	41 56                	push   %r14
  402f54:	49 89 d7             	mov    %rdx,%r15
  402f57:	41 55                	push   %r13
  402f59:	41 54                	push   %r12
  402f5b:	4c 8d 25 ae 1e 20 00 	lea    0x201eae(%rip),%r12        # 604e10 <__frame_dummy_init_array_entry>
  402f62:	55                   	push   %rbp
  402f63:	48 8d 2d ae 1e 20 00 	lea    0x201eae(%rip),%rbp        # 604e18 <__do_global_dtors_aux_fini_array_entry>
  402f6a:	53                   	push   %rbx
  402f6b:	41 89 fd             	mov    %edi,%r13d
  402f6e:	49 89 f6             	mov    %rsi,%r14
  402f71:	4c 29 e5             	sub    %r12,%rbp
  402f74:	48 83 ec 08          	sub    $0x8,%rsp
  402f78:	48 c1 fd 03          	sar    $0x3,%rbp
  402f7c:	e8 c7 dc ff ff       	callq  400c48 <_init>
  402f81:	48 85 ed             	test   %rbp,%rbp
  402f84:	74 20                	je     402fa6 <__libc_csu_init+0x56>
  402f86:	31 db                	xor    %ebx,%ebx
  402f88:	0f 1f 84 00 00 00 00 	nopl   0x0(%rax,%rax,1)
  402f8f:	00 
  402f90:	4c 89 fa             	mov    %r15,%rdx
  402f93:	4c 89 f6             	mov    %r14,%rsi
  402f96:	44 89 ef             	mov    %r13d,%edi
  402f99:	41 ff 14 dc          	callq  *(%r12,%rbx,8)
  402f9d:	48 83 c3 01          	add    $0x1,%rbx
  402fa1:	48 39 dd             	cmp    %rbx,%rbp
  402fa4:	75 ea                	jne    402f90 <__libc_csu_init+0x40>
  402fa6:	48 83 c4 08          	add    $0x8,%rsp
  402faa:	5b                   	pop    %rbx
  402fab:	5d                   	pop    %rbp
  402fac:	41 5c                	pop    %r12
  402fae:	41 5d                	pop    %r13
  402fb0:	41 5e                	pop    %r14
  402fb2:	41 5f                	pop    %r15
  402fb4:	c3                   	retq   
  402fb5:	90                   	nop
  402fb6:	66 2e 0f 1f 84 00 00 	nopw   %cs:0x0(%rax,%rax,1)
  402fbd:	00 00 00 

0000000000402fc0 <__libc_csu_fini>:
  402fc0:	f3 c3                	repz retq 

Disassembly of section .fini:

0000000000402fc4 <_fini>:
  402fc4:	48 83 ec 08          	sub    $0x8,%rsp
  402fc8:	48 83 c4 08          	add    $0x8,%rsp
  402fcc:	c3                   	retq   
